
PCRemote.elf:     file format elf32-avr

Sections:
Idx Name          Size      VMA       LMA       File off  Algn
  0 .data         000000cc  00800100  000020fa  0000218e  2**0
                  CONTENTS, ALLOC, LOAD, DATA
  1 .text         000020fa  00000000  00000000  00000094  2**1
                  CONTENTS, ALLOC, LOAD, READONLY, CODE
  2 .bss          0000030b  008001cc  008001cc  0000225a  2**0
                  ALLOC
  3 .comment      0000005c  00000000  00000000  0000225a  2**0
                  CONTENTS, READONLY
  4 .note.gnu.avr.deviceinfo 00000040  00000000  00000000  000022b8  2**2
                  CONTENTS, READONLY

Disassembly of section .text:

00000000 <__vectors>:
       0:	0c 94 50 00 	jmp	0xa0	; 0xa0 <__ctors_end>
       4:	0c 94 6d 00 	jmp	0xda	; 0xda <__bad_interrupt>
       8:	0c 94 6d 00 	jmp	0xda	; 0xda <__bad_interrupt>
       c:	0c 94 3c 0a 	jmp	0x1478	; 0x1478 <__vector_3>
      10:	0c 94 6d 00 	jmp	0xda	; 0xda <__bad_interrupt>
      14:	0c 94 6d 00 	jmp	0xda	; 0xda <__bad_interrupt>
      18:	0c 94 6d 00 	jmp	0xda	; 0xda <__bad_interrupt>
      1c:	0c 94 4d 07 	jmp	0xe9a	; 0xe9a <__vector_7>
      20:	0c 94 6d 00 	jmp	0xda	; 0xda <__bad_interrupt>
      24:	0c 94 6d 00 	jmp	0xda	; 0xda <__bad_interrupt>
      28:	0c 94 6d 00 	jmp	0xda	; 0xda <__bad_interrupt>
      2c:	0c 94 6d 00 	jmp	0xda	; 0xda <__bad_interrupt>
      30:	0c 94 6d 00 	jmp	0xda	; 0xda <__bad_interrupt>
      34:	0c 94 6d 00 	jmp	0xda	; 0xda <__bad_interrupt>
      38:	0c 94 d1 0a 	jmp	0x15a2	; 0x15a2 <__vector_14>
      3c:	0c 94 6d 00 	jmp	0xda	; 0xda <__bad_interrupt>
      40:	0c 94 6d 00 	jmp	0xda	; 0xda <__bad_interrupt>
      44:	0c 94 6d 00 	jmp	0xda	; 0xda <__bad_interrupt>
      48:	0c 94 6d 00 	jmp	0xda	; 0xda <__bad_interrupt>
      4c:	0c 94 e5 06 	jmp	0xdca	; 0xdca <__vector_19>
      50:	0c 94 6d 00 	jmp	0xda	; 0xda <__bad_interrupt>
      54:	0c 94 6d 00 	jmp	0xda	; 0xda <__bad_interrupt>
      58:	0c 94 6d 00 	jmp	0xda	; 0xda <__bad_interrupt>
      5c:	0c 94 6d 00 	jmp	0xda	; 0xda <__bad_interrupt>
      60:	0c 94 6d 00 	jmp	0xda	; 0xda <__bad_interrupt>
      64:	0c 94 6d 00 	jmp	0xda	; 0xda <__bad_interrupt>
      68:	c7 0b       	sbc	r28, r23
      6a:	c1 0b       	sbc	r28, r17
      6c:	b7 0b       	sbc	r27, r23
      6e:	ad 0b       	sbc	r26, r29
      70:	a3 0b       	sbc	r26, r19
      72:	99 0b       	sbc	r25, r25
      74:	8d 0b       	sbc	r24, r29
      76:	86 0b       	sbc	r24, r22
      78:	83 0b       	sbc	r24, r19
      7a:	c6 0c       	add	r12, r6
      7c:	9c 0c       	add	r9, r12
      7e:	12 0d       	add	r17, r2
      80:	12 0d       	add	r17, r2
      82:	12 0d       	add	r17, r2
      84:	d2 0c       	add	r13, r2
      86:	c1 0c       	add	r12, r1
      88:	ff 0c       	add	r15, r15
      8a:	ed 0c       	add	r14, r13
      8c:	ea 0c       	add	r14, r10
      8e:	be 0c       	add	r11, r14
      90:	be 0c       	add	r11, r14
      92:	be 0c       	add	r11, r14
      94:	be 0c       	add	r11, r14
      96:	be 0c       	add	r11, r14
      98:	be 0c       	add	r11, r14
      9a:	be 0c       	add	r11, r14
      9c:	a6 0c       	add	r10, r6
      9e:	a9 0c       	add	r10, r9

000000a0 <__ctors_end>:
      a0:	11 24       	eor	r1, r1
      a2:	1f be       	out	0x3f, r1	; 63
      a4:	cf ef       	ldi	r28, 0xFF	; 255
      a6:	d8 e0       	ldi	r29, 0x08	; 8
      a8:	de bf       	out	0x3e, r29	; 62
      aa:	cd bf       	out	0x3d, r28	; 61

000000ac <__do_copy_data>:
      ac:	11 e0       	ldi	r17, 0x01	; 1
      ae:	a0 e0       	ldi	r26, 0x00	; 0
      b0:	b1 e0       	ldi	r27, 0x01	; 1
      b2:	ea ef       	ldi	r30, 0xFA	; 250
      b4:	f0 e2       	ldi	r31, 0x20	; 32
      b6:	02 c0       	rjmp	.+4      	; 0xbc <__do_copy_data+0x10>
      b8:	05 90       	lpm	r0, Z+
      ba:	0d 92       	st	X+, r0
      bc:	ac 3c       	cpi	r26, 0xCC	; 204
      be:	b1 07       	cpc	r27, r17
      c0:	d9 f7       	brne	.-10     	; 0xb8 <__do_copy_data+0xc>

000000c2 <__do_clear_bss>:
      c2:	24 e0       	ldi	r18, 0x04	; 4
      c4:	ac ec       	ldi	r26, 0xCC	; 204
      c6:	b1 e0       	ldi	r27, 0x01	; 1
      c8:	01 c0       	rjmp	.+2      	; 0xcc <.do_clear_bss_start>

000000ca <.do_clear_bss_loop>:
      ca:	1d 92       	st	X+, r1

000000cc <.do_clear_bss_start>:
      cc:	a7 3d       	cpi	r26, 0xD7	; 215
      ce:	b2 07       	cpc	r27, r18
      d0:	e1 f7       	brne	.-8      	; 0xca <.do_clear_bss_loop>
      d2:	0e 94 9c 00 	call	0x138	; 0x138 <main>
      d6:	0c 94 7b 10 	jmp	0x20f6	; 0x20f6 <_exit>

000000da <__bad_interrupt>:
      da:	0c 94 00 00 	jmp	0	; 0x0 <__vectors>

000000de <send_break_for_ircode>:
      de:	41 e0       	ldi	r20, 0x01	; 1
      e0:	0e 94 58 01 	call	0x2b0	; 0x2b0 <send_kbcode_for_ir>
      e4:	83 e0       	ldi	r24, 0x03	; 3
      e6:	91 e0       	ldi	r25, 0x01	; 1
      e8:	0e 94 17 07 	call	0xe2e	; 0xe2e <debug_log>
      ec:	80 91 cf 04 	lds	r24, 0x04CF	; 0x8004cf <decode_results+0x2>
      f0:	90 91 d0 04 	lds	r25, 0x04D0	; 0x8004d0 <decode_results+0x3>
      f4:	a0 91 d1 04 	lds	r26, 0x04D1	; 0x8004d1 <decode_results+0x4>
      f8:	b0 91 d2 04 	lds	r27, 0x04D2	; 0x8004d2 <decode_results+0x5>
      fc:	bf 93       	push	r27
      fe:	af 93       	push	r26
     100:	9f 93       	push	r25
     102:	8f 93       	push	r24
     104:	88 e0       	ldi	r24, 0x08	; 8
     106:	91 e0       	ldi	r25, 0x01	; 1
     108:	9f 93       	push	r25
     10a:	8f 93       	push	r24
     10c:	82 ed       	ldi	r24, 0xD2	; 210
     10e:	91 e0       	ldi	r25, 0x01	; 1
     110:	9f 93       	push	r25
     112:	8f 93       	push	r24
     114:	0e 94 91 0d 	call	0x1b22	; 0x1b22 <sprintf>
     118:	82 ed       	ldi	r24, 0xD2	; 210
     11a:	91 e0       	ldi	r25, 0x01	; 1
     11c:	0e 94 17 07 	call	0xe2e	; 0xe2e <debug_log>
     120:	8d b7       	in	r24, 0x3d	; 61
     122:	9e b7       	in	r25, 0x3e	; 62
     124:	08 96       	adiw	r24, 0x08	; 8
     126:	0f b6       	in	r0, 0x3f	; 63
     128:	f8 94       	cli
     12a:	9e bf       	out	0x3e, r25	; 62
     12c:	0f be       	out	0x3f, r0	; 63
     12e:	8d bf       	out	0x3d, r24	; 61
     130:	8b e9       	ldi	r24, 0x9B	; 155
     132:	91 e0       	ldi	r25, 0x01	; 1
     134:	0c 94 17 07 	jmp	0xe2e	; 0xe2e <debug_log>

00000138 <main>:
     138:	86 e4       	ldi	r24, 0x46	; 70
     13a:	80 93 66 00 	sts	0x0066, r24	; 0x800066 <__TEXT_REGION_LENGTH__+0x7e0066>
     13e:	0e 94 44 07 	call	0xe88	; 0xe88 <init_debug_log>
     142:	0e 94 a0 08 	call	0x1140	; 0x1140 <enableIRRecv>
     146:	61 e0       	ldi	r22, 0x01	; 1
     148:	82 e0       	ldi	r24, 0x02	; 2
     14a:	0e 94 34 0c 	call	0x1868	; 0x1868 <setup_ps2device>
     14e:	8a b1       	in	r24, 0x0a	; 10
     150:	80 74       	andi	r24, 0x40	; 64
     152:	8a b9       	out	0x0a, r24	; 10
     154:	8b b1       	in	r24, 0x0b	; 11
     156:	80 74       	andi	r24, 0x40	; 64
     158:	8b b9       	out	0x0b, r24	; 11
     15a:	c8 e0       	ldi	r28, 0x08	; 8
     15c:	d1 e0       	ldi	r29, 0x01	; 1
     15e:	02 ed       	ldi	r16, 0xD2	; 210
     160:	11 e0       	ldi	r17, 0x01	; 1
     162:	ee 24       	eor	r14, r14
     164:	e3 94       	inc	r14
     166:	f1 2c       	mov	r15, r1
     168:	0e 94 3a 0c 	call	0x1874	; 0x1874 <do_ps2device_work>
     16c:	8d ec       	ldi	r24, 0xCD	; 205
     16e:	94 e0       	ldi	r25, 0x04	; 4
     170:	0e 94 1d 08 	call	0x103a	; 0x103a <decodeHashIRRecv>
     174:	88 23       	and	r24, r24
     176:	c9 f0       	breq	.+50     	; 0x1aa <main+0x72>
     178:	81 30       	cpi	r24, 0x01	; 1
     17a:	b1 f7       	brne	.-20     	; 0x168 <main+0x30>
     17c:	60 91 ce 01 	lds	r22, 0x01CE	; 0x8001ce <prev_ir_value>
     180:	70 91 cf 01 	lds	r23, 0x01CF	; 0x8001cf <prev_ir_value+0x1>
     184:	80 91 d0 01 	lds	r24, 0x01D0	; 0x8001d0 <prev_ir_value+0x2>
     188:	90 91 d1 01 	lds	r25, 0x01D1	; 0x8001d1 <prev_ir_value+0x3>
     18c:	0e 94 6f 00 	call	0xde	; 0xde <send_break_for_ircode>
     190:	10 92 ce 01 	sts	0x01CE, r1	; 0x8001ce <prev_ir_value>
     194:	10 92 cf 01 	sts	0x01CF, r1	; 0x8001cf <prev_ir_value+0x1>
     198:	10 92 d0 01 	sts	0x01D0, r1	; 0x8001d0 <prev_ir_value+0x2>
     19c:	10 92 d1 01 	sts	0x01D1, r1	; 0x8001d1 <prev_ir_value+0x3>
     1a0:	10 92 cd 01 	sts	0x01CD, r1	; 0x8001cd <__data_end+0x1>
     1a4:	10 92 cc 01 	sts	0x01CC, r1	; 0x8001cc <__data_end>
     1a8:	df cf       	rjmp	.-66     	; 0x168 <main+0x30>
     1aa:	60 91 ce 01 	lds	r22, 0x01CE	; 0x8001ce <prev_ir_value>
     1ae:	70 91 cf 01 	lds	r23, 0x01CF	; 0x8001cf <prev_ir_value+0x1>
     1b2:	80 91 d0 01 	lds	r24, 0x01D0	; 0x8001d0 <prev_ir_value+0x2>
     1b6:	90 91 d1 01 	lds	r25, 0x01D1	; 0x8001d1 <prev_ir_value+0x3>
     1ba:	61 15       	cp	r22, r1
     1bc:	71 05       	cpc	r23, r1
     1be:	81 05       	cpc	r24, r1
     1c0:	91 05       	cpc	r25, r1
     1c2:	a1 f0       	breq	.+40     	; 0x1ec <main+0xb4>
     1c4:	80 90 cf 04 	lds	r8, 0x04CF	; 0x8004cf <decode_results+0x2>
     1c8:	90 90 d0 04 	lds	r9, 0x04D0	; 0x8004d0 <decode_results+0x3>
     1cc:	a0 90 d1 04 	lds	r10, 0x04D1	; 0x8004d1 <decode_results+0x4>
     1d0:	b0 90 d2 04 	lds	r11, 0x04D2	; 0x8004d2 <decode_results+0x5>
     1d4:	68 15       	cp	r22, r8
     1d6:	79 05       	cpc	r23, r9
     1d8:	8a 05       	cpc	r24, r10
     1da:	9b 05       	cpc	r25, r11
     1dc:	39 f0       	breq	.+14     	; 0x1ec <main+0xb4>
     1de:	0e 94 6f 00 	call	0xde	; 0xde <send_break_for_ircode>
     1e2:	f0 92 cd 01 	sts	0x01CD, r15	; 0x8001cd <__data_end+0x1>
     1e6:	e0 92 cc 01 	sts	0x01CC, r14	; 0x8001cc <__data_end>
     1ea:	09 c0       	rjmp	.+18     	; 0x1fe <main+0xc6>
     1ec:	80 91 cc 01 	lds	r24, 0x01CC	; 0x8001cc <__data_end>
     1f0:	90 91 cd 01 	lds	r25, 0x01CD	; 0x8001cd <__data_end+0x1>
     1f4:	01 96       	adiw	r24, 0x01	; 1
     1f6:	90 93 cd 01 	sts	0x01CD, r25	; 0x8001cd <__data_end+0x1>
     1fa:	80 93 cc 01 	sts	0x01CC, r24	; 0x8001cc <__data_end>
     1fe:	80 91 cc 01 	lds	r24, 0x01CC	; 0x8001cc <__data_end>
     202:	90 91 cd 01 	lds	r25, 0x01CD	; 0x8001cd <__data_end+0x1>
     206:	81 30       	cpi	r24, 0x01	; 1
     208:	91 05       	cpc	r25, r1
     20a:	11 f0       	breq	.+4      	; 0x210 <main+0xd8>
     20c:	05 97       	sbiw	r24, 0x05	; 5
     20e:	88 f1       	brcs	.+98     	; 0x272 <main+0x13a>
     210:	60 91 cf 04 	lds	r22, 0x04CF	; 0x8004cf <decode_results+0x2>
     214:	70 91 d0 04 	lds	r23, 0x04D0	; 0x8004d0 <decode_results+0x3>
     218:	80 91 d1 04 	lds	r24, 0x04D1	; 0x8004d1 <decode_results+0x4>
     21c:	90 91 d2 04 	lds	r25, 0x04D2	; 0x8004d2 <decode_results+0x5>
     220:	40 e0       	ldi	r20, 0x00	; 0
     222:	0e 94 58 01 	call	0x2b0	; 0x2b0 <send_kbcode_for_ir>
     226:	8c e0       	ldi	r24, 0x0C	; 12
     228:	91 e0       	ldi	r25, 0x01	; 1
     22a:	0e 94 17 07 	call	0xe2e	; 0xe2e <debug_log>
     22e:	80 91 cf 04 	lds	r24, 0x04CF	; 0x8004cf <decode_results+0x2>
     232:	90 91 d0 04 	lds	r25, 0x04D0	; 0x8004d0 <decode_results+0x3>
     236:	a0 91 d1 04 	lds	r26, 0x04D1	; 0x8004d1 <decode_results+0x4>
     23a:	b0 91 d2 04 	lds	r27, 0x04D2	; 0x8004d2 <decode_results+0x5>
     23e:	bf 93       	push	r27
     240:	af 93       	push	r26
     242:	9f 93       	push	r25
     244:	8f 93       	push	r24
     246:	df 93       	push	r29
     248:	cf 93       	push	r28
     24a:	1f 93       	push	r17
     24c:	0f 93       	push	r16
     24e:	0e 94 91 0d 	call	0x1b22	; 0x1b22 <sprintf>
     252:	82 ed       	ldi	r24, 0xD2	; 210
     254:	91 e0       	ldi	r25, 0x01	; 1
     256:	0e 94 17 07 	call	0xe2e	; 0xe2e <debug_log>
     25a:	8b e9       	ldi	r24, 0x9B	; 155
     25c:	91 e0       	ldi	r25, 0x01	; 1
     25e:	0e 94 17 07 	call	0xe2e	; 0xe2e <debug_log>
     262:	8d b7       	in	r24, 0x3d	; 61
     264:	9e b7       	in	r25, 0x3e	; 62
     266:	08 96       	adiw	r24, 0x08	; 8
     268:	0f b6       	in	r0, 0x3f	; 63
     26a:	f8 94       	cli
     26c:	9e bf       	out	0x3e, r25	; 62
     26e:	0f be       	out	0x3f, r0	; 63
     270:	8d bf       	out	0x3d, r24	; 61
     272:	80 91 cf 04 	lds	r24, 0x04CF	; 0x8004cf <decode_results+0x2>
     276:	90 91 d0 04 	lds	r25, 0x04D0	; 0x8004d0 <decode_results+0x3>
     27a:	a0 91 d1 04 	lds	r26, 0x04D1	; 0x8004d1 <decode_results+0x4>
     27e:	b0 91 d2 04 	lds	r27, 0x04D2	; 0x8004d2 <decode_results+0x5>
     282:	80 93 ce 01 	sts	0x01CE, r24	; 0x8001ce <prev_ir_value>
     286:	90 93 cf 01 	sts	0x01CF, r25	; 0x8001cf <prev_ir_value+0x1>
     28a:	a0 93 d0 01 	sts	0x01D0, r26	; 0x8001d0 <prev_ir_value+0x2>
     28e:	b0 93 d1 01 	sts	0x01D1, r27	; 0x8001d1 <prev_ir_value+0x3>
     292:	6a cf       	rjmp	.-300    	; 0x168 <main+0x30>

00000294 <_press_pwr_btn>:
     294:	57 9a       	sbi	0x0a, 7	; 10
     296:	5f 98       	cbi	0x0b, 7	; 11
     298:	2f ef       	ldi	r18, 0xFF	; 255
     29a:	89 e6       	ldi	r24, 0x69	; 105
     29c:	98 e1       	ldi	r25, 0x18	; 24
     29e:	21 50       	subi	r18, 0x01	; 1
     2a0:	80 40       	sbci	r24, 0x00	; 0
     2a2:	90 40       	sbci	r25, 0x00	; 0
     2a4:	e1 f7       	brne	.-8      	; 0x29e <_press_pwr_btn+0xa>
     2a6:	00 c0       	rjmp	.+0      	; 0x2a8 <_press_pwr_btn+0x14>
     2a8:	00 00       	nop
     2aa:	57 98       	cbi	0x0a, 7	; 10
     2ac:	5f 98       	cbi	0x0b, 7	; 11
     2ae:	08 95       	ret

000002b0 <send_kbcode_for_ir>:
     2b0:	cf 92       	push	r12
     2b2:	df 92       	push	r13
     2b4:	ef 92       	push	r14
     2b6:	ff 92       	push	r15
     2b8:	cf 93       	push	r28
     2ba:	6b 01       	movw	r12, r22
     2bc:	7c 01       	movw	r14, r24
     2be:	c4 2f       	mov	r28, r20
     2c0:	4e 99       	sbic	0x09, 6	; 9
     2c2:	27 c0       	rjmp	.+78     	; 0x312 <send_kbcode_for_ir+0x62>
     2c4:	87 ec       	ldi	r24, 0xC7	; 199
     2c6:	c8 16       	cp	r12, r24
     2c8:	81 e9       	ldi	r24, 0x91	; 145
     2ca:	d8 06       	cpc	r13, r24
     2cc:	80 e7       	ldi	r24, 0x70	; 112
     2ce:	e8 06       	cpc	r14, r24
     2d0:	8d ef       	ldi	r24, 0xFD	; 253
     2d2:	f8 06       	cpc	r15, r24
     2d4:	e1 f0       	breq	.+56     	; 0x30e <send_kbcode_for_ir+0x5e>
     2d6:	8b e6       	ldi	r24, 0x6B	; 107
     2d8:	c8 16       	cp	r12, r24
     2da:	81 e0       	ldi	r24, 0x01	; 1
     2dc:	d8 06       	cpc	r13, r24
     2de:	87 ed       	ldi	r24, 0xD7	; 215
     2e0:	e8 06       	cpc	r14, r24
     2e2:	8f e8       	ldi	r24, 0x8F	; 143
     2e4:	f8 06       	cpc	r15, r24
     2e6:	99 f0       	breq	.+38     	; 0x30e <send_kbcode_for_ir+0x5e>
     2e8:	84 e9       	ldi	r24, 0x94	; 148
     2ea:	c8 16       	cp	r12, r24
     2ec:	86 e0       	ldi	r24, 0x06	; 6
     2ee:	d8 06       	cpc	r13, r24
     2f0:	89 e7       	ldi	r24, 0x79	; 121
     2f2:	e8 06       	cpc	r14, r24
     2f4:	8b e4       	ldi	r24, 0x4B	; 75
     2f6:	f8 06       	cpc	r15, r24
     2f8:	51 f0       	breq	.+20     	; 0x30e <send_kbcode_for_ir+0x5e>
     2fa:	88 e7       	ldi	r24, 0x78	; 120
     2fc:	c8 16       	cp	r12, r24
     2fe:	8c ec       	ldi	r24, 0xCC	; 204
     300:	d8 06       	cpc	r13, r24
     302:	8f ee       	ldi	r24, 0xEF	; 239
     304:	e8 06       	cpc	r14, r24
     306:	89 ea       	ldi	r24, 0xA9	; 169
     308:	f8 06       	cpc	r15, r24
     30a:	09 f0       	breq	.+2      	; 0x30e <send_kbcode_for_ir+0x5e>
     30c:	45 c5       	rjmp	.+2698   	; 0xd98 <__stack+0x499>
     30e:	0e 94 4a 01 	call	0x294	; 0x294 <_press_pwr_btn>
     312:	8b e9       	ldi	r24, 0x9B	; 155
     314:	c8 16       	cp	r12, r24
     316:	8d ee       	ldi	r24, 0xED	; 237
     318:	d8 06       	cpc	r13, r24
     31a:	8a e0       	ldi	r24, 0x0A	; 10
     31c:	e8 06       	cpc	r14, r24
     31e:	8f e8       	ldi	r24, 0x8F	; 143
     320:	f8 06       	cpc	r15, r24
     322:	09 f4       	brne	.+2      	; 0x326 <send_kbcode_for_ir+0x76>
     324:	9a c4       	rjmp	.+2356   	; 0xc5a <__stack+0x35b>
     326:	08 f0       	brcs	.+2      	; 0x32a <send_kbcode_for_ir+0x7a>
     328:	8e c1       	rjmp	.+796    	; 0x646 <__FUSE_REGION_LENGTH__+0x246>
     32a:	84 e9       	ldi	r24, 0x94	; 148
     32c:	c8 16       	cp	r12, r24
     32e:	86 e0       	ldi	r24, 0x06	; 6
     330:	d8 06       	cpc	r13, r24
     332:	89 e7       	ldi	r24, 0x79	; 121
     334:	e8 06       	cpc	r14, r24
     336:	8b e4       	ldi	r24, 0x4B	; 75
     338:	f8 06       	cpc	r15, r24
     33a:	09 f4       	brne	.+2      	; 0x33e <send_kbcode_for_ir+0x8e>
     33c:	1c c3       	rjmp	.+1592   	; 0x976 <__stack+0x77>
     33e:	08 f0       	brcs	.+2      	; 0x342 <send_kbcode_for_ir+0x92>
     340:	c0 c0       	rjmp	.+384    	; 0x4c2 <__FUSE_REGION_LENGTH__+0xc2>
     342:	8f eb       	ldi	r24, 0xBF	; 191
     344:	c8 16       	cp	r12, r24
     346:	82 e9       	ldi	r24, 0x92	; 146
     348:	d8 06       	cpc	r13, r24
     34a:	8c e9       	ldi	r24, 0x9C	; 156
     34c:	e8 06       	cpc	r14, r24
     34e:	87 e1       	ldi	r24, 0x17	; 23
     350:	f8 06       	cpc	r15, r24
     352:	09 f4       	brne	.+2      	; 0x356 <send_kbcode_for_ir+0xa6>
     354:	9a c4       	rjmp	.+2356   	; 0xc8a <__stack+0x38b>
     356:	08 f0       	brcs	.+2      	; 0x35a <send_kbcode_for_ir+0xaa>
     358:	53 c0       	rjmp	.+166    	; 0x400 <__FUSE_REGION_LENGTH__>
     35a:	83 e8       	ldi	r24, 0x83	; 131
     35c:	c8 16       	cp	r12, r24
     35e:	88 e9       	ldi	r24, 0x98	; 152
     360:	d8 06       	cpc	r13, r24
     362:	86 ee       	ldi	r24, 0xE6	; 230
     364:	e8 06       	cpc	r14, r24
     366:	81 e0       	ldi	r24, 0x01	; 1
     368:	f8 06       	cpc	r15, r24
     36a:	09 f4       	brne	.+2      	; 0x36e <send_kbcode_for_ir+0xbe>
     36c:	68 c3       	rjmp	.+1744   	; 0xa3e <__stack+0x13f>
     36e:	e8 f4       	brcc	.+58     	; 0x3aa <send_kbcode_for_ir+0xfa>
     370:	8e ee       	ldi	r24, 0xEE	; 238
     372:	c8 16       	cp	r12, r24
     374:	86 e9       	ldi	r24, 0x96	; 150
     376:	d8 06       	cpc	r13, r24
     378:	86 ee       	ldi	r24, 0xE6	; 230
     37a:	e8 06       	cpc	r14, r24
     37c:	f1 04       	cpc	r15, r1
     37e:	09 f4       	brne	.+2      	; 0x382 <send_kbcode_for_ir+0xd2>
     380:	67 c3       	rjmp	.+1742   	; 0xa50 <__stack+0x151>
     382:	89 e7       	ldi	r24, 0x79	; 121
     384:	c8 16       	cp	r12, r24
     386:	8a eb       	ldi	r24, 0xBA	; 186
     388:	d8 06       	cpc	r13, r24
     38a:	8b e1       	ldi	r24, 0x1B	; 27
     38c:	e8 06       	cpc	r14, r24
     38e:	81 e0       	ldi	r24, 0x01	; 1
     390:	f8 06       	cpc	r15, r24
     392:	09 f4       	brne	.+2      	; 0x396 <send_kbcode_for_ir+0xe6>
     394:	df c3       	rjmp	.+1982   	; 0xb54 <__stack+0x255>
     396:	81 e4       	ldi	r24, 0x41	; 65
     398:	c8 16       	cp	r12, r24
     39a:	8b e5       	ldi	r24, 0x5B	; 91
     39c:	d8 06       	cpc	r13, r24
     39e:	82 e1       	ldi	r24, 0x12	; 18
     3a0:	e8 06       	cpc	r14, r24
     3a2:	f1 04       	cpc	r15, r1
     3a4:	09 f0       	breq	.+2      	; 0x3a8 <send_kbcode_for_ir+0xf8>
     3a6:	f8 c4       	rjmp	.+2544   	; 0xd98 <__stack+0x499>
     3a8:	4c c4       	rjmp	.+2200   	; 0xc42 <__stack+0x343>
     3aa:	8e e4       	ldi	r24, 0x4E	; 78
     3ac:	c8 16       	cp	r12, r24
     3ae:	8d ee       	ldi	r24, 0xED	; 237
     3b0:	d8 06       	cpc	r13, r24
     3b2:	8f e4       	ldi	r24, 0x4F	; 79
     3b4:	e8 06       	cpc	r14, r24
     3b6:	83 e1       	ldi	r24, 0x13	; 19
     3b8:	f8 06       	cpc	r15, r24
     3ba:	09 f4       	brne	.+2      	; 0x3be <send_kbcode_for_ir+0x10e>
     3bc:	6f c4       	rjmp	.+2270   	; 0xc9c <__stack+0x39d>
     3be:	58 f4       	brcc	.+22     	; 0x3d6 <send_kbcode_for_ir+0x126>
     3c0:	85 eb       	ldi	r24, 0xB5	; 181
     3c2:	c8 16       	cp	r12, r24
     3c4:	88 ed       	ldi	r24, 0xD8	; 216
     3c6:	d8 06       	cpc	r13, r24
     3c8:	85 e3       	ldi	r24, 0x35	; 53
     3ca:	e8 06       	cpc	r14, r24
     3cc:	8b e0       	ldi	r24, 0x0B	; 11
     3ce:	f8 06       	cpc	r15, r24
     3d0:	09 f4       	brne	.+2      	; 0x3d4 <send_kbcode_for_ir+0x124>
     3d2:	0f c4       	rjmp	.+2078   	; 0xbf2 <__stack+0x2f3>
     3d4:	e1 c4       	rjmp	.+2498   	; 0xd98 <__stack+0x499>
     3d6:	85 e8       	ldi	r24, 0x85	; 133
     3d8:	c8 16       	cp	r12, r24
     3da:	8d e4       	ldi	r24, 0x4D	; 77
     3dc:	d8 06       	cpc	r13, r24
     3de:	82 e9       	ldi	r24, 0x92	; 146
     3e0:	e8 06       	cpc	r14, r24
     3e2:	84 e1       	ldi	r24, 0x14	; 20
     3e4:	f8 06       	cpc	r15, r24
     3e6:	09 f4       	brne	.+2      	; 0x3ea <send_kbcode_for_ir+0x13a>
     3e8:	2c c4       	rjmp	.+2136   	; 0xc42 <__stack+0x343>
     3ea:	8c e2       	ldi	r24, 0x2C	; 44
     3ec:	c8 16       	cp	r12, r24
     3ee:	81 e9       	ldi	r24, 0x91	; 145
     3f0:	d8 06       	cpc	r13, r24
     3f2:	8c e9       	ldi	r24, 0x9C	; 156
     3f4:	e8 06       	cpc	r14, r24
     3f6:	86 e1       	ldi	r24, 0x16	; 22
     3f8:	f8 06       	cpc	r15, r24
     3fa:	09 f4       	brne	.+2      	; 0x3fe <send_kbcode_for_ir+0x14e>
     3fc:	de c2       	rjmp	.+1468   	; 0x9ba <__stack+0xbb>
     3fe:	cc c4       	rjmp	.+2456   	; 0xd98 <__stack+0x499>
     400:	82 e9       	ldi	r24, 0x92	; 146
     402:	c8 16       	cp	r12, r24
     404:	8f ed       	ldi	r24, 0xDF	; 223
     406:	d8 06       	cpc	r13, r24
     408:	8f ec       	ldi	r24, 0xCF	; 207
     40a:	e8 06       	cpc	r14, r24
     40c:	87 e2       	ldi	r24, 0x27	; 39
     40e:	f8 06       	cpc	r15, r24
     410:	09 f4       	brne	.+2      	; 0x414 <__FUSE_REGION_LENGTH__+0x14>
     412:	44 c4       	rjmp	.+2184   	; 0xc9c <__stack+0x39d>
     414:	58 f5       	brcc	.+86     	; 0x46c <__FUSE_REGION_LENGTH__+0x6c>
     416:	8f ea       	ldi	r24, 0xAF	; 175
     418:	c8 16       	cp	r12, r24
     41a:	84 ef       	ldi	r24, 0xF4	; 244
     41c:	d8 06       	cpc	r13, r24
     41e:	8e e9       	ldi	r24, 0x9E	; 158
     420:	e8 06       	cpc	r14, r24
     422:	8c e1       	ldi	r24, 0x1C	; 28
     424:	f8 06       	cpc	r15, r24
     426:	09 f4       	brne	.+2      	; 0x42a <__FUSE_REGION_LENGTH__+0x2a>
     428:	e0 c2       	rjmp	.+1472   	; 0x9ea <__stack+0xeb>
     42a:	58 f4       	brcc	.+22     	; 0x442 <__FUSE_REGION_LENGTH__+0x42>
     42c:	8a e1       	ldi	r24, 0x1A	; 26
     42e:	c8 16       	cp	r12, r24
     430:	83 ef       	ldi	r24, 0xF3	; 243
     432:	d8 06       	cpc	r13, r24
     434:	8e e9       	ldi	r24, 0x9E	; 158
     436:	e8 06       	cpc	r14, r24
     438:	8b e1       	ldi	r24, 0x1B	; 27
     43a:	f8 06       	cpc	r15, r24
     43c:	09 f4       	brne	.+2      	; 0x440 <__FUSE_REGION_LENGTH__+0x40>
     43e:	ab c2       	rjmp	.+1366   	; 0x996 <__stack+0x97>
     440:	ab c4       	rjmp	.+2390   	; 0xd98 <__stack+0x499>
     442:	86 ec       	ldi	r24, 0xC6	; 198
     444:	c8 16       	cp	r12, r24
     446:	85 ec       	ldi	r24, 0xC5	; 197
     448:	d8 06       	cpc	r13, r24
     44a:	82 ef       	ldi	r24, 0xF2	; 242
     44c:	e8 06       	cpc	r14, r24
     44e:	8e e1       	ldi	r24, 0x1E	; 30
     450:	f8 06       	cpc	r15, r24
     452:	09 f4       	brne	.+2      	; 0x456 <__FUSE_REGION_LENGTH__+0x56>
     454:	1c c3       	rjmp	.+1592   	; 0xa8e <__stack+0x18f>
     456:	89 ef       	ldi	r24, 0xF9	; 249
     458:	c8 16       	cp	r12, r24
     45a:	8a ec       	ldi	r24, 0xCA	; 202
     45c:	d8 06       	cpc	r13, r24
     45e:	85 eb       	ldi	r24, 0xB5	; 181
     460:	e8 06       	cpc	r14, r24
     462:	8f e1       	ldi	r24, 0x1F	; 31
     464:	f8 06       	cpc	r15, r24
     466:	09 f4       	brne	.+2      	; 0x46a <__FUSE_REGION_LENGTH__+0x6a>
     468:	c4 c3       	rjmp	.+1928   	; 0xbf2 <__stack+0x2f3>
     46a:	96 c4       	rjmp	.+2348   	; 0xd98 <__stack+0x499>
     46c:	8c e2       	ldi	r24, 0x2C	; 44
     46e:	c8 16       	cp	r12, r24
     470:	8e e8       	ldi	r24, 0x8E	; 142
     472:	d8 06       	cpc	r13, r24
     474:	88 e7       	ldi	r24, 0x78	; 120
     476:	e8 06       	cpc	r14, r24
     478:	8f e3       	ldi	r24, 0x3F	; 63
     47a:	f8 06       	cpc	r15, r24
     47c:	09 f4       	brne	.+2      	; 0x480 <__FUSE_REGION_LENGTH__+0x80>
     47e:	9d c3       	rjmp	.+1850   	; 0xbba <__stack+0x2bb>
     480:	58 f4       	brcc	.+22     	; 0x498 <__FUSE_REGION_LENGTH__+0x98>
     482:	8a e0       	ldi	r24, 0x0A	; 10
     484:	c8 16       	cp	r12, r24
     486:	88 eb       	ldi	r24, 0xB8	; 184
     488:	d8 06       	cpc	r13, r24
     48a:	82 e7       	ldi	r24, 0x72	; 114
     48c:	e8 06       	cpc	r14, r24
     48e:	83 e3       	ldi	r24, 0x33	; 51
     490:	f8 06       	cpc	r15, r24
     492:	09 f4       	brne	.+2      	; 0x496 <__FUSE_REGION_LENGTH__+0x96>
     494:	fc c2       	rjmp	.+1528   	; 0xa8e <__stack+0x18f>
     496:	80 c4       	rjmp	.+2304   	; 0xd98 <__stack+0x499>
     498:	8c e5       	ldi	r24, 0x5C	; 92
     49a:	c8 16       	cp	r12, r24
     49c:	85 ee       	ldi	r24, 0xE5	; 229
     49e:	d8 06       	cpc	r13, r24
     4a0:	8b e9       	ldi	r24, 0x9B	; 155
     4a2:	e8 06       	cpc	r14, r24
     4a4:	84 e4       	ldi	r24, 0x44	; 68
     4a6:	f8 06       	cpc	r15, r24
     4a8:	09 f4       	brne	.+2      	; 0x4ac <__FUSE_REGION_LENGTH__+0xac>
     4aa:	97 c2       	rjmp	.+1326   	; 0x9da <__stack+0xdb>
     4ac:	84 ea       	ldi	r24, 0xA4	; 164
     4ae:	c8 16       	cp	r12, r24
     4b0:	83 ee       	ldi	r24, 0xE3	; 227
     4b2:	d8 06       	cpc	r13, r24
     4b4:	88 e8       	ldi	r24, 0x88	; 136
     4b6:	e8 06       	cpc	r14, r24
     4b8:	8a e4       	ldi	r24, 0x4A	; 74
     4ba:	f8 06       	cpc	r15, r24
     4bc:	09 f4       	brne	.+2      	; 0x4c0 <__FUSE_REGION_LENGTH__+0xc0>
     4be:	b5 c3       	rjmp	.+1898   	; 0xc2a <__stack+0x32b>
     4c0:	6b c4       	rjmp	.+2262   	; 0xd98 <__stack+0x499>
     4c2:	83 e9       	ldi	r24, 0x93	; 147
     4c4:	c8 16       	cp	r12, r24
     4c6:	88 e8       	ldi	r24, 0x88	; 136
     4c8:	d8 06       	cpc	r13, r24
     4ca:	84 ed       	ldi	r24, 0xD4	; 212
     4cc:	e8 06       	cpc	r14, r24
     4ce:	8a e6       	ldi	r24, 0x6A	; 106
     4d0:	f8 06       	cpc	r15, r24
     4d2:	09 f4       	brne	.+2      	; 0x4d6 <__FUSE_REGION_LENGTH__+0xd6>
     4d4:	50 c2       	rjmp	.+1184   	; 0x976 <__stack+0x77>
     4d6:	08 f0       	brcs	.+2      	; 0x4da <__FUSE_REGION_LENGTH__+0xda>
     4d8:	55 c0       	rjmp	.+170    	; 0x584 <__FUSE_REGION_LENGTH__+0x184>
     4da:	8a e6       	ldi	r24, 0x6A	; 106
     4dc:	c8 16       	cp	r12, r24
     4de:	87 ed       	ldi	r24, 0xD7	; 215
     4e0:	d8 06       	cpc	r13, r24
     4e2:	81 e2       	ldi	r24, 0x21	; 33
     4e4:	e8 06       	cpc	r14, r24
     4e6:	8f e5       	ldi	r24, 0x5F	; 95
     4e8:	f8 06       	cpc	r15, r24
     4ea:	09 f4       	brne	.+2      	; 0x4ee <__FUSE_REGION_LENGTH__+0xee>
     4ec:	4e c3       	rjmp	.+1692   	; 0xb8a <__stack+0x28b>
     4ee:	f8 f4       	brcc	.+62     	; 0x52e <__FUSE_REGION_LENGTH__+0x12e>
     4f0:	80 e7       	ldi	r24, 0x70	; 112
     4f2:	c8 16       	cp	r12, r24
     4f4:	80 e8       	ldi	r24, 0x80	; 128
     4f6:	d8 06       	cpc	r13, r24
     4f8:	88 ef       	ldi	r24, 0xF8	; 248
     4fa:	e8 06       	cpc	r14, r24
     4fc:	83 e5       	ldi	r24, 0x53	; 83
     4fe:	f8 06       	cpc	r15, r24
     500:	09 f4       	brne	.+2      	; 0x504 <__FUSE_REGION_LENGTH__+0x104>
     502:	5b c3       	rjmp	.+1718   	; 0xbba <__stack+0x2bb>
     504:	8c e1       	ldi	r24, 0x1C	; 28
     506:	c8 16       	cp	r12, r24
     508:	86 e6       	ldi	r24, 0x66	; 102
     50a:	d8 06       	cpc	r13, r24
     50c:	8f e3       	ldi	r24, 0x3F	; 63
     50e:	e8 06       	cpc	r14, r24
     510:	87 e5       	ldi	r24, 0x57	; 87
     512:	f8 06       	cpc	r15, r24
     514:	09 f4       	brne	.+2      	; 0x518 <__FUSE_REGION_LENGTH__+0x118>
     516:	5a c3       	rjmp	.+1716   	; 0xbcc <__stack+0x2cd>
     518:	86 e3       	ldi	r24, 0x36	; 54
     51a:	c8 16       	cp	r12, r24
     51c:	85 e9       	ldi	r24, 0x95	; 149
     51e:	d8 06       	cpc	r13, r24
     520:	87 e1       	ldi	r24, 0x17	; 23
     522:	e8 06       	cpc	r14, r24
     524:	83 e5       	ldi	r24, 0x53	; 83
     526:	f8 06       	cpc	r15, r24
     528:	09 f0       	breq	.+2      	; 0x52c <__FUSE_REGION_LENGTH__+0x12c>
     52a:	36 c4       	rjmp	.+2156   	; 0xd98 <__stack+0x499>
     52c:	3d c2       	rjmp	.+1146   	; 0x9a8 <__stack+0xa9>
     52e:	81 e0       	ldi	r24, 0x01	; 1
     530:	c8 16       	cp	r12, r24
     532:	8c ee       	ldi	r24, 0xEC	; 236
     534:	d8 06       	cpc	r13, r24
     536:	8b e3       	ldi	r24, 0x3B	; 59
     538:	e8 06       	cpc	r14, r24
     53a:	87 e6       	ldi	r24, 0x67	; 103
     53c:	f8 06       	cpc	r15, r24
     53e:	09 f4       	brne	.+2      	; 0x542 <__FUSE_REGION_LENGTH__+0x142>
     540:	d3 c3       	rjmp	.+1958   	; 0xce8 <__stack+0x3e9>
     542:	58 f4       	brcc	.+22     	; 0x55a <__FUSE_REGION_LENGTH__+0x15a>
     544:	88 e6       	ldi	r24, 0x68	; 104
     546:	c8 16       	cp	r12, r24
     548:	86 e7       	ldi	r24, 0x76	; 118
     54a:	d8 06       	cpc	r13, r24
     54c:	8a e4       	ldi	r24, 0x4A	; 74
     54e:	e8 06       	cpc	r14, r24
     550:	83 e6       	ldi	r24, 0x63	; 99
     552:	f8 06       	cpc	r15, r24
     554:	09 f4       	brne	.+2      	; 0x558 <__FUSE_REGION_LENGTH__+0x158>
     556:	62 c2       	rjmp	.+1220   	; 0xa1c <__stack+0x11d>
     558:	1f c4       	rjmp	.+2110   	; 0xd98 <__stack+0x499>
     55a:	88 eb       	ldi	r24, 0xB8	; 184
     55c:	c8 16       	cp	r12, r24
     55e:	80 ef       	ldi	r24, 0xF0	; 240
     560:	d8 06       	cpc	r13, r24
     562:	8b e3       	ldi	r24, 0x3B	; 59
     564:	e8 06       	cpc	r14, r24
     566:	8a e6       	ldi	r24, 0x6A	; 106
     568:	f8 06       	cpc	r15, r24
     56a:	09 f4       	brne	.+2      	; 0x56e <__FUSE_REGION_LENGTH__+0x16e>
     56c:	aa c3       	rjmp	.+1876   	; 0xcc2 <__stack+0x3c3>
     56e:	82 e5       	ldi	r24, 0x52	; 82
     570:	c8 16       	cp	r12, r24
     572:	88 ec       	ldi	r24, 0xC8	; 200
     574:	d8 06       	cpc	r13, r24
     576:	8b e8       	ldi	r24, 0x8B	; 139
     578:	e8 06       	cpc	r14, r24
     57a:	8a e6       	ldi	r24, 0x6A	; 106
     57c:	f8 06       	cpc	r15, r24
     57e:	09 f4       	brne	.+2      	; 0x582 <__FUSE_REGION_LENGTH__+0x182>
     580:	70 c2       	rjmp	.+1248   	; 0xa62 <__stack+0x163>
     582:	0a c4       	rjmp	.+2068   	; 0xd98 <__stack+0x499>
     584:	85 e8       	ldi	r24, 0x85	; 133
     586:	c8 16       	cp	r12, r24
     588:	89 e4       	ldi	r24, 0x49	; 73
     58a:	d8 06       	cpc	r13, r24
     58c:	8d e3       	ldi	r24, 0x3D	; 61
     58e:	e8 06       	cpc	r14, r24
     590:	8e e7       	ldi	r24, 0x7E	; 126
     592:	f8 06       	cpc	r15, r24
     594:	09 f4       	brne	.+2      	; 0x598 <__FUSE_REGION_LENGTH__+0x198>
     596:	c6 c2       	rjmp	.+1420   	; 0xb24 <__stack+0x225>
     598:	58 f5       	brcc	.+86     	; 0x5f0 <__FUSE_REGION_LENGTH__+0x1f0>
     59a:	85 e6       	ldi	r24, 0x65	; 101
     59c:	c8 16       	cp	r12, r24
     59e:	87 e5       	ldi	r24, 0x57	; 87
     5a0:	d8 06       	cpc	r13, r24
     5a2:	84 e9       	ldi	r24, 0x94	; 148
     5a4:	e8 06       	cpc	r14, r24
     5a6:	89 e7       	ldi	r24, 0x79	; 121
     5a8:	f8 06       	cpc	r15, r24
     5aa:	09 f4       	brne	.+2      	; 0x5ae <__FUSE_REGION_LENGTH__+0x1ae>
     5ac:	3f c2       	rjmp	.+1150   	; 0xa2c <__stack+0x12d>
     5ae:	58 f4       	brcc	.+22     	; 0x5c6 <__FUSE_REGION_LENGTH__+0x1c6>
     5b0:	8e ea       	ldi	r24, 0xAE	; 174
     5b2:	c8 16       	cp	r12, r24
     5b4:	89 ec       	ldi	r24, 0xC9	; 201
     5b6:	d8 06       	cpc	r13, r24
     5b8:	81 ea       	ldi	r24, 0xA1	; 161
     5ba:	e8 06       	cpc	r14, r24
     5bc:	83 e7       	ldi	r24, 0x73	; 115
     5be:	f8 06       	cpc	r15, r24
     5c0:	09 f4       	brne	.+2      	; 0x5c4 <__FUSE_REGION_LENGTH__+0x1c4>
     5c2:	e3 c2       	rjmp	.+1478   	; 0xb8a <__stack+0x28b>
     5c4:	e9 c3       	rjmp	.+2002   	; 0xd98 <__stack+0x499>
     5c6:	8c ec       	ldi	r24, 0xCC	; 204
     5c8:	c8 16       	cp	r12, r24
     5ca:	84 e4       	ldi	r24, 0x44	; 68
     5cc:	d8 06       	cpc	r13, r24
     5ce:	8d e3       	ldi	r24, 0x3D	; 61
     5d0:	e8 06       	cpc	r14, r24
     5d2:	8b e7       	ldi	r24, 0x7B	; 123
     5d4:	f8 06       	cpc	r15, r24
     5d6:	09 f4       	brne	.+2      	; 0x5da <__FUSE_REGION_LENGTH__+0x1da>
     5d8:	b1 c2       	rjmp	.+1378   	; 0xb3c <__stack+0x23d>
     5da:	85 e4       	ldi	r24, 0x45	; 69
     5dc:	c8 16       	cp	r12, r24
     5de:	8e ed       	ldi	r24, 0xDE	; 222
     5e0:	d8 06       	cpc	r13, r24
     5e2:	8b eb       	ldi	r24, 0xBB	; 187
     5e4:	e8 06       	cpc	r14, r24
     5e6:	8b e7       	ldi	r24, 0x7B	; 123
     5e8:	f8 06       	cpc	r15, r24
     5ea:	09 f4       	brne	.+2      	; 0x5ee <__FUSE_REGION_LENGTH__+0x1ee>
     5ec:	7d c3       	rjmp	.+1786   	; 0xce8 <__stack+0x3e9>
     5ee:	d4 c3       	rjmp	.+1960   	; 0xd98 <__stack+0x499>
     5f0:	88 e0       	ldi	r24, 0x08	; 8
     5f2:	c8 16       	cp	r12, r24
     5f4:	8c ee       	ldi	r24, 0xEC	; 236
     5f6:	d8 06       	cpc	r13, r24
     5f8:	8a e0       	ldi	r24, 0x0A	; 10
     5fa:	e8 06       	cpc	r14, r24
     5fc:	8e e8       	ldi	r24, 0x8E	; 142
     5fe:	f8 06       	cpc	r15, r24
     600:	09 f4       	brne	.+2      	; 0x604 <__FUSE_REGION_LENGTH__+0x204>
     602:	37 c3       	rjmp	.+1646   	; 0xc72 <__stack+0x373>
     604:	58 f4       	brcc	.+22     	; 0x61c <__FUSE_REGION_LENGTH__+0x21c>
     606:	8c ef       	ldi	r24, 0xFC	; 252
     608:	c8 16       	cp	r12, r24
     60a:	82 ee       	ldi	r24, 0xE2	; 226
     60c:	d8 06       	cpc	r13, r24
     60e:	8b eb       	ldi	r24, 0xBB	; 187
     610:	e8 06       	cpc	r14, r24
     612:	8e e7       	ldi	r24, 0x7E	; 126
     614:	f8 06       	cpc	r15, r24
     616:	09 f4       	brne	.+2      	; 0x61a <__FUSE_REGION_LENGTH__+0x21a>
     618:	54 c3       	rjmp	.+1704   	; 0xcc2 <__stack+0x3c3>
     61a:	be c3       	rjmp	.+1916   	; 0xd98 <__stack+0x499>
     61c:	89 ea       	ldi	r24, 0xA9	; 169
     61e:	c8 16       	cp	r12, r24
     620:	89 e4       	ldi	r24, 0x49	; 73
     622:	d8 06       	cpc	r13, r24
     624:	84 e1       	ldi	r24, 0x14	; 20
     626:	e8 06       	cpc	r14, r24
     628:	8e e8       	ldi	r24, 0x8E	; 142
     62a:	f8 06       	cpc	r15, r24
     62c:	09 f4       	brne	.+2      	; 0x630 <__FUSE_REGION_LENGTH__+0x230>
     62e:	fe c1       	rjmp	.+1020   	; 0xa2c <__stack+0x12d>
     630:	8a ec       	ldi	r24, 0xCA	; 202
     632:	c8 16       	cp	r12, r24
     634:	84 ec       	ldi	r24, 0xC4	; 196
     636:	d8 06       	cpc	r13, r24
     638:	8e e1       	ldi	r24, 0x1E	; 30
     63a:	e8 06       	cpc	r14, r24
     63c:	8e e8       	ldi	r24, 0x8E	; 142
     63e:	f8 06       	cpc	r15, r24
     640:	09 f4       	brne	.+2      	; 0x644 <__FUSE_REGION_LENGTH__+0x244>
     642:	7d c3       	rjmp	.+1786   	; 0xd3e <__stack+0x43f>
     644:	a9 c3       	rjmp	.+1874   	; 0xd98 <__stack+0x499>
     646:	82 e9       	ldi	r24, 0x92	; 146
     648:	c8 16       	cp	r12, r24
     64a:	85 e2       	ldi	r24, 0x25	; 37
     64c:	d8 06       	cpc	r13, r24
     64e:	81 eb       	ldi	r24, 0xB1	; 177
     650:	e8 06       	cpc	r14, r24
     652:	80 ec       	ldi	r24, 0xC0	; 192
     654:	f8 06       	cpc	r15, r24
     656:	09 f4       	brne	.+2      	; 0x65a <__FUSE_REGION_LENGTH__+0x25a>
     658:	a7 c1       	rjmp	.+846    	; 0x9a8 <__stack+0xa9>
     65a:	08 f0       	brcs	.+2      	; 0x65e <__FUSE_REGION_LENGTH__+0x25e>
     65c:	c0 c0       	rjmp	.+384    	; 0x7de <__FUSE_REGION_LENGTH__+0x3de>
     65e:	8f ed       	ldi	r24, 0xDF	; 223
     660:	c8 16       	cp	r12, r24
     662:	d8 06       	cpc	r13, r24
     664:	8a e8       	ldi	r24, 0x8A	; 138
     666:	e8 06       	cpc	r14, r24
     668:	83 ea       	ldi	r24, 0xA3	; 163
     66a:	f8 06       	cpc	r15, r24
     66c:	09 f4       	brne	.+2      	; 0x670 <__FUSE_REGION_LENGTH__+0x270>
     66e:	f5 c2       	rjmp	.+1514   	; 0xc5a <__stack+0x35b>
     670:	08 f0       	brcs	.+2      	; 0x674 <__FUSE_REGION_LENGTH__+0x274>
     672:	55 c0       	rjmp	.+170    	; 0x71e <__FUSE_REGION_LENGTH__+0x31e>
     674:	89 ec       	ldi	r24, 0xC9	; 201
     676:	c8 16       	cp	r12, r24
     678:	8b e3       	ldi	r24, 0x3B	; 59
     67a:	d8 06       	cpc	r13, r24
     67c:	8d eb       	ldi	r24, 0xBD	; 189
     67e:	e8 06       	cpc	r14, r24
     680:	82 e9       	ldi	r24, 0x92	; 146
     682:	f8 06       	cpc	r15, r24
     684:	09 f4       	brne	.+2      	; 0x688 <__FUSE_REGION_LENGTH__+0x288>
     686:	4e c2       	rjmp	.+1180   	; 0xb24 <__stack+0x225>
     688:	f8 f4       	brcc	.+62     	; 0x6c8 <__FUSE_REGION_LENGTH__+0x2c8>
     68a:	8f eb       	ldi	r24, 0xBF	; 191
     68c:	c8 16       	cp	r12, r24
     68e:	8b e6       	ldi	r24, 0x6B	; 107
     690:	d8 06       	cpc	r13, r24
     692:	86 eb       	ldi	r24, 0xB6	; 182
     694:	e8 06       	cpc	r14, r24
     696:	81 e9       	ldi	r24, 0x91	; 145
     698:	f8 06       	cpc	r15, r24
     69a:	09 f4       	brne	.+2      	; 0x69e <__FUSE_REGION_LENGTH__+0x29e>
     69c:	0e c2       	rjmp	.+1052   	; 0xaba <__stack+0x1bb>
     69e:	8a e4       	ldi	r24, 0x4A	; 74
     6a0:	c8 16       	cp	r12, r24
     6a2:	87 e7       	ldi	r24, 0x77	; 119
     6a4:	d8 06       	cpc	r13, r24
     6a6:	86 eb       	ldi	r24, 0xB6	; 182
     6a8:	e8 06       	cpc	r14, r24
     6aa:	81 e9       	ldi	r24, 0x91	; 145
     6ac:	f8 06       	cpc	r15, r24
     6ae:	09 f4       	brne	.+2      	; 0x6b2 <__FUSE_REGION_LENGTH__+0x2b2>
     6b0:	2e c3       	rjmp	.+1628   	; 0xd0e <__stack+0x40f>
     6b2:	80 e1       	ldi	r24, 0x10	; 16
     6b4:	c8 16       	cp	r12, r24
     6b6:	87 e3       	ldi	r24, 0x37	; 55
     6b8:	d8 06       	cpc	r13, r24
     6ba:	8d eb       	ldi	r24, 0xBD	; 189
     6bc:	e8 06       	cpc	r14, r24
     6be:	8f e8       	ldi	r24, 0x8F	; 143
     6c0:	f8 06       	cpc	r15, r24
     6c2:	09 f0       	breq	.+2      	; 0x6c6 <__FUSE_REGION_LENGTH__+0x2c6>
     6c4:	69 c3       	rjmp	.+1746   	; 0xd98 <__stack+0x499>
     6c6:	3a c2       	rjmp	.+1140   	; 0xb3c <__stack+0x23d>
     6c8:	8a e0       	ldi	r24, 0x0A	; 10
     6ca:	c8 16       	cp	r12, r24
     6cc:	81 ed       	ldi	r24, 0xD1	; 209
     6ce:	d8 06       	cpc	r13, r24
     6d0:	8f e6       	ldi	r24, 0x6F	; 111
     6d2:	e8 06       	cpc	r14, r24
     6d4:	82 ea       	ldi	r24, 0xA2	; 162
     6d6:	f8 06       	cpc	r15, r24
     6d8:	09 f4       	brne	.+2      	; 0x6dc <__FUSE_REGION_LENGTH__+0x2dc>
     6da:	ba c1       	rjmp	.+884    	; 0xa50 <__stack+0x151>
     6dc:	58 f4       	brcc	.+22     	; 0x6f4 <__FUSE_REGION_LENGTH__+0x2f4>
     6de:	86 e0       	ldi	r24, 0x06	; 6
     6e0:	c8 16       	cp	r12, r24
     6e2:	8a ec       	ldi	r24, 0xCA	; 202
     6e4:	d8 06       	cpc	r13, r24
     6e6:	85 ed       	ldi	r24, 0xD5	; 213
     6e8:	e8 06       	cpc	r14, r24
     6ea:	8e e9       	ldi	r24, 0x9E	; 158
     6ec:	f8 06       	cpc	r15, r24
     6ee:	09 f4       	brne	.+2      	; 0x6f2 <__FUSE_REGION_LENGTH__+0x2f2>
     6f0:	fa c1       	rjmp	.+1012   	; 0xae6 <__stack+0x1e7>
     6f2:	52 c3       	rjmp	.+1700   	; 0xd98 <__stack+0x499>
     6f4:	8c e4       	ldi	r24, 0x4C	; 76
     6f6:	c8 16       	cp	r12, r24
     6f8:	8e ed       	ldi	r24, 0xDE	; 222
     6fa:	d8 06       	cpc	r13, r24
     6fc:	8a e8       	ldi	r24, 0x8A	; 138
     6fe:	e8 06       	cpc	r14, r24
     700:	82 ea       	ldi	r24, 0xA2	; 162
     702:	f8 06       	cpc	r15, r24
     704:	09 f4       	brne	.+2      	; 0x708 <__FUSE_REGION_LENGTH__+0x308>
     706:	b5 c2       	rjmp	.+1386   	; 0xc72 <__stack+0x373>
     708:	8f e9       	ldi	r24, 0x9F	; 159
     70a:	c8 16       	cp	r12, r24
     70c:	82 ed       	ldi	r24, 0xD2	; 210
     70e:	d8 06       	cpc	r13, r24
     710:	8f e6       	ldi	r24, 0x6F	; 111
     712:	e8 06       	cpc	r14, r24
     714:	83 ea       	ldi	r24, 0xA3	; 163
     716:	f8 06       	cpc	r15, r24
     718:	09 f4       	brne	.+2      	; 0x71c <__FUSE_REGION_LENGTH__+0x31c>
     71a:	91 c1       	rjmp	.+802    	; 0xa3e <__stack+0x13f>
     71c:	3d c3       	rjmp	.+1658   	; 0xd98 <__stack+0x499>
     71e:	83 e6       	ldi	r24, 0x63	; 99
     720:	c8 16       	cp	r12, r24
     722:	82 e0       	ldi	r24, 0x02	; 2
     724:	d8 06       	cpc	r13, r24
     726:	83 e0       	ldi	r24, 0x03	; 3
     728:	e8 06       	cpc	r14, r24
     72a:	8a ea       	ldi	r24, 0xAA	; 170
     72c:	f8 06       	cpc	r15, r24
     72e:	09 f4       	brne	.+2      	; 0x732 <__FUSE_REGION_LENGTH__+0x332>
     730:	ac c2       	rjmp	.+1368   	; 0xc8a <__stack+0x38b>
     732:	50 f5       	brcc	.+84     	; 0x788 <__FUSE_REGION_LENGTH__+0x388>
     734:	88 e8       	ldi	r24, 0x88	; 136
     736:	c8 16       	cp	r12, r24
     738:	89 ea       	ldi	r24, 0xA9	; 169
     73a:	d8 06       	cpc	r13, r24
     73c:	8f ef       	ldi	r24, 0xFF	; 255
     73e:	e8 06       	cpc	r14, r24
     740:	88 ea       	ldi	r24, 0xA8	; 168
     742:	f8 06       	cpc	r15, r24
     744:	09 f4       	brne	.+2      	; 0x748 <__FUSE_REGION_LENGTH__+0x348>
     746:	71 c2       	rjmp	.+1250   	; 0xc2a <__stack+0x32b>
     748:	58 f4       	brcc	.+22     	; 0x760 <__FUSE_REGION_LENGTH__+0x360>
     74a:	8e e8       	ldi	r24, 0x8E	; 142
     74c:	c8 16       	cp	r12, r24
     74e:	89 e6       	ldi	r24, 0x69	; 105
     750:	d8 06       	cpc	r13, r24
     752:	86 e3       	ldi	r24, 0x36	; 54
     754:	e8 06       	cpc	r14, r24
     756:	86 ea       	ldi	r24, 0xA6	; 166
     758:	f8 06       	cpc	r15, r24
     75a:	09 f4       	brne	.+2      	; 0x75e <__FUSE_REGION_LENGTH__+0x35e>
     75c:	d8 c2       	rjmp	.+1456   	; 0xd0e <__stack+0x40f>
     75e:	1c c3       	rjmp	.+1592   	; 0xd98 <__stack+0x499>
     760:	80 ed       	ldi	r24, 0xD0	; 208
     762:	c8 16       	cp	r12, r24
     764:	d1 04       	cpc	r13, r1
     766:	83 e0       	ldi	r24, 0x03	; 3
     768:	e8 06       	cpc	r14, r24
     76a:	89 ea       	ldi	r24, 0xA9	; 169
     76c:	f8 06       	cpc	r15, r24
     76e:	09 f4       	brne	.+2      	; 0x772 <__FUSE_REGION_LENGTH__+0x372>
     770:	24 c1       	rjmp	.+584    	; 0x9ba <__stack+0xbb>
     772:	88 e7       	ldi	r24, 0x78	; 120
     774:	c8 16       	cp	r12, r24
     776:	8c ec       	ldi	r24, 0xCC	; 204
     778:	d8 06       	cpc	r13, r24
     77a:	8f ee       	ldi	r24, 0xEF	; 239
     77c:	e8 06       	cpc	r14, r24
     77e:	89 ea       	ldi	r24, 0xA9	; 169
     780:	f8 06       	cpc	r15, r24
     782:	09 f4       	brne	.+2      	; 0x786 <__FUSE_REGION_LENGTH__+0x386>
     784:	f8 c0       	rjmp	.+496    	; 0x976 <__stack+0x77>
     786:	08 c3       	rjmp	.+1552   	; 0xd98 <__stack+0x499>
     788:	8a e4       	ldi	r24, 0x4A	; 74
     78a:	c8 16       	cp	r12, r24
     78c:	8c eb       	ldi	r24, 0xBC	; 188
     78e:	d8 06       	cpc	r13, r24
     790:	85 e5       	ldi	r24, 0x55	; 85
     792:	e8 06       	cpc	r14, r24
     794:	83 eb       	ldi	r24, 0xB3	; 179
     796:	f8 06       	cpc	r15, r24
     798:	09 f4       	brne	.+2      	; 0x79c <__FUSE_REGION_LENGTH__+0x39c>
     79a:	a5 c1       	rjmp	.+842    	; 0xae6 <__stack+0x1e7>
     79c:	58 f4       	brcc	.+22     	; 0x7b4 <__FUSE_REGION_LENGTH__+0x3b4>
     79e:	83 e6       	ldi	r24, 0x63	; 99
     7a0:	c8 16       	cp	r12, r24
     7a2:	86 eb       	ldi	r24, 0xB6	; 182
     7a4:	d8 06       	cpc	r13, r24
     7a6:	87 e2       	ldi	r24, 0x27	; 39
     7a8:	e8 06       	cpc	r14, r24
     7aa:	82 eb       	ldi	r24, 0xB2	; 178
     7ac:	f8 06       	cpc	r15, r24
     7ae:	09 f4       	brne	.+2      	; 0x7b2 <__FUSE_REGION_LENGTH__+0x3b2>
     7b0:	e3 c1       	rjmp	.+966    	; 0xb78 <__stack+0x279>
     7b2:	f2 c2       	rjmp	.+1508   	; 0xd98 <__stack+0x499>
     7b4:	86 e3       	ldi	r24, 0x36	; 54
     7b6:	c8 16       	cp	r12, r24
     7b8:	8d e2       	ldi	r24, 0x2D	; 45
     7ba:	d8 06       	cpc	r13, r24
     7bc:	88 e2       	ldi	r24, 0x28	; 40
     7be:	e8 06       	cpc	r14, r24
     7c0:	8d eb       	ldi	r24, 0xBD	; 189
     7c2:	f8 06       	cpc	r15, r24
     7c4:	09 f4       	brne	.+2      	; 0x7c8 <__FUSE_REGION_LENGTH__+0x3c8>
     7c6:	e7 c0       	rjmp	.+462    	; 0x996 <__stack+0x97>
     7c8:	8b ec       	ldi	r24, 0xCB	; 203
     7ca:	c8 16       	cp	r12, r24
     7cc:	8e e2       	ldi	r24, 0x2E	; 46
     7ce:	d8 06       	cpc	r13, r24
     7d0:	88 e2       	ldi	r24, 0x28	; 40
     7d2:	e8 06       	cpc	r14, r24
     7d4:	8e eb       	ldi	r24, 0xBE	; 190
     7d6:	f8 06       	cpc	r15, r24
     7d8:	09 f4       	brne	.+2      	; 0x7dc <__FUSE_REGION_LENGTH__+0x3dc>
     7da:	07 c1       	rjmp	.+526    	; 0x9ea <__stack+0xeb>
     7dc:	dd c2       	rjmp	.+1466   	; 0xd98 <__stack+0x499>
     7de:	85 eb       	ldi	r24, 0xB5	; 181
     7e0:	c8 16       	cp	r12, r24
     7e2:	89 e1       	ldi	r24, 0x19	; 25
     7e4:	d8 06       	cpc	r13, r24
     7e6:	8d e1       	ldi	r24, 0x1D	; 29
     7e8:	e8 06       	cpc	r14, r24
     7ea:	83 ee       	ldi	r24, 0xE3	; 227
     7ec:	f8 06       	cpc	r15, r24
     7ee:	09 f4       	brne	.+2      	; 0x7f2 <__FUSE_REGION_LENGTH__+0x3f2>
     7f0:	c9 c0       	rjmp	.+402    	; 0x984 <__stack+0x85>
     7f2:	08 f0       	brcs	.+2      	; 0x7f6 <__FUSE_REGION_LENGTH__+0x3f6>
     7f4:	5f c0       	rjmp	.+190    	; 0x8b4 <__FUSE_REGION_LENGTH__+0x4b4>
     7f6:	c1 14       	cp	r12, r1
     7f8:	85 e5       	ldi	r24, 0x55	; 85
     7fa:	d8 06       	cpc	r13, r24
     7fc:	82 e0       	ldi	r24, 0x02	; 2
     7fe:	e8 06       	cpc	r14, r24
     800:	87 ed       	ldi	r24, 0xD7	; 215
     802:	f8 06       	cpc	r15, r24
     804:	09 f4       	brne	.+2      	; 0x808 <__FUSE_REGION_LENGTH__+0x408>
     806:	e9 c0       	rjmp	.+466    	; 0x9da <__stack+0xdb>
     808:	50 f5       	brcc	.+84     	; 0x85e <__FUSE_REGION_LENGTH__+0x45e>
     80a:	87 ea       	ldi	r24, 0xA7	; 167
     80c:	c8 16       	cp	r12, r24
     80e:	88 ea       	ldi	r24, 0xA8	; 168
     810:	d8 06       	cpc	r13, r24
     812:	87 ea       	ldi	r24, 0xA7	; 167
     814:	e8 06       	cpc	r14, r24
     816:	86 ec       	ldi	r24, 0xC6	; 198
     818:	f8 06       	cpc	r15, r24
     81a:	09 f4       	brne	.+2      	; 0x81e <__FUSE_REGION_LENGTH__+0x41e>
     81c:	ad c1       	rjmp	.+858    	; 0xb78 <__stack+0x279>
     81e:	50 f4       	brcc	.+20     	; 0x834 <__FUSE_REGION_LENGTH__+0x434>
     820:	8c e4       	ldi	r24, 0x4C	; 76
     822:	c8 16       	cp	r12, r24
     824:	8c e3       	ldi	r24, 0x3C	; 60
     826:	d8 06       	cpc	r13, r24
     828:	81 ec       	ldi	r24, 0xC1	; 193
     82a:	e8 06       	cpc	r14, r24
     82c:	f8 06       	cpc	r15, r24
     82e:	09 f4       	brne	.+2      	; 0x832 <__FUSE_REGION_LENGTH__+0x432>
     830:	f5 c0       	rjmp	.+490    	; 0xa1c <__stack+0x11d>
     832:	b2 c2       	rjmp	.+1380   	; 0xd98 <__stack+0x499>
     834:	81 e7       	ldi	r24, 0x71	; 113
     836:	c8 16       	cp	r12, r24
     838:	87 e2       	ldi	r24, 0x27	; 39
     83a:	d8 06       	cpc	r13, r24
     83c:	8d e9       	ldi	r24, 0x9D	; 157
     83e:	e8 06       	cpc	r14, r24
     840:	8e ec       	ldi	r24, 0xCE	; 206
     842:	f8 06       	cpc	r15, r24
     844:	09 f4       	brne	.+2      	; 0x848 <__FUSE_REGION_LENGTH__+0x448>
     846:	9e c0       	rjmp	.+316    	; 0x984 <__stack+0x85>
     848:	88 e2       	ldi	r24, 0x28	; 40
     84a:	c8 16       	cp	r12, r24
     84c:	8c e2       	ldi	r24, 0x2C	; 44
     84e:	d8 06       	cpc	r13, r24
     850:	8d e9       	ldi	r24, 0x9D	; 157
     852:	e8 06       	cpc	r14, r24
     854:	81 ed       	ldi	r24, 0xD1	; 209
     856:	f8 06       	cpc	r15, r24
     858:	09 f4       	brne	.+2      	; 0x85c <__FUSE_REGION_LENGTH__+0x45c>
     85a:	d7 c0       	rjmp	.+430    	; 0xa0a <__stack+0x10b>
     85c:	9d c2       	rjmp	.+1338   	; 0xd98 <__stack+0x499>
     85e:	8f ee       	ldi	r24, 0xEF	; 239
     860:	c8 16       	cp	r12, r24
     862:	88 e1       	ldi	r24, 0x18	; 24
     864:	d8 06       	cpc	r13, r24
     866:	8e e6       	ldi	r24, 0x6E	; 110
     868:	e8 06       	cpc	r14, r24
     86a:	88 ed       	ldi	r24, 0xD8	; 216
     86c:	f8 06       	cpc	r15, r24
     86e:	09 f4       	brne	.+2      	; 0x872 <__FUSE_REGION_LENGTH__+0x472>
     870:	82 c0       	rjmp	.+260    	; 0x976 <__stack+0x77>
     872:	58 f4       	brcc	.+22     	; 0x88a <__FUSE_REGION_LENGTH__+0x48a>
     874:	8e ea       	ldi	r24, 0xAE	; 174
     876:	c8 16       	cp	r12, r24
     878:	88 e5       	ldi	r24, 0x58	; 88
     87a:	d8 06       	cpc	r13, r24
     87c:	85 e2       	ldi	r24, 0x25	; 37
     87e:	e8 06       	cpc	r14, r24
     880:	88 ed       	ldi	r24, 0xD8	; 216
     882:	f8 06       	cpc	r15, r24
     884:	09 f4       	brne	.+2      	; 0x888 <__FUSE_REGION_LENGTH__+0x488>
     886:	ed c0       	rjmp	.+474    	; 0xa62 <__stack+0x163>
     888:	87 c2       	rjmp	.+1294   	; 0xd98 <__stack+0x499>
     88a:	8e e0       	ldi	r24, 0x0E	; 14
     88c:	c8 16       	cp	r12, r24
     88e:	84 e1       	ldi	r24, 0x14	; 20
     890:	d8 06       	cpc	r13, r24
     892:	8c e0       	ldi	r24, 0x0C	; 12
     894:	e8 06       	cpc	r14, r24
     896:	81 ee       	ldi	r24, 0xE1	; 225
     898:	f8 06       	cpc	r15, r24
     89a:	09 f4       	brne	.+2      	; 0x89e <__FUSE_REGION_LENGTH__+0x49e>
     89c:	5c c2       	rjmp	.+1208   	; 0xd56 <__stack+0x457>
     89e:	83 ea       	ldi	r24, 0xA3	; 163
     8a0:	c8 16       	cp	r12, r24
     8a2:	85 e1       	ldi	r24, 0x15	; 21
     8a4:	d8 06       	cpc	r13, r24
     8a6:	8c e0       	ldi	r24, 0x0C	; 12
     8a8:	e8 06       	cpc	r14, r24
     8aa:	82 ee       	ldi	r24, 0xE2	; 226
     8ac:	f8 06       	cpc	r15, r24
     8ae:	09 f4       	brne	.+2      	; 0x8b2 <__FUSE_REGION_LENGTH__+0x4b2>
     8b0:	8d c0       	rjmp	.+282    	; 0x9cc <__stack+0xcd>
     8b2:	72 c2       	rjmp	.+1252   	; 0xd98 <__stack+0x499>
     8b4:	87 ee       	ldi	r24, 0xE7	; 231
     8b6:	c8 16       	cp	r12, r24
     8b8:	87 e0       	ldi	r24, 0x07	; 7
     8ba:	d8 06       	cpc	r13, r24
     8bc:	8c e8       	ldi	r24, 0x8C	; 140
     8be:	e8 06       	cpc	r14, r24
     8c0:	86 ef       	ldi	r24, 0xF6	; 246
     8c2:	f8 06       	cpc	r15, r24
     8c4:	09 f4       	brne	.+2      	; 0x8c8 <__FUSE_REGION_LENGTH__+0x4c8>
     8c6:	82 c0       	rjmp	.+260    	; 0x9cc <__stack+0xcd>
     8c8:	58 f5       	brcc	.+86     	; 0x920 <__stack+0x21>
     8ca:	8c e7       	ldi	r24, 0x7C	; 124
     8cc:	c8 16       	cp	r12, r24
     8ce:	83 ec       	ldi	r24, 0xC3	; 195
     8d0:	d8 06       	cpc	r13, r24
     8d2:	8b e9       	ldi	r24, 0x9B	; 155
     8d4:	e8 06       	cpc	r14, r24
     8d6:	89 ee       	ldi	r24, 0xE9	; 233
     8d8:	f8 06       	cpc	r15, r24
     8da:	09 f4       	brne	.+2      	; 0x8de <__FUSE_REGION_LENGTH__+0x4de>
     8dc:	44 c1       	rjmp	.+648    	; 0xb66 <__stack+0x267>
     8de:	58 f4       	brcc	.+22     	; 0x8f6 <__FUSE_REGION_LENGTH__+0x4f6>
     8e0:	8c e6       	ldi	r24, 0x6C	; 108
     8e2:	c8 16       	cp	r12, r24
     8e4:	8e e1       	ldi	r24, 0x1E	; 30
     8e6:	d8 06       	cpc	r13, r24
     8e8:	8d e1       	ldi	r24, 0x1D	; 29
     8ea:	e8 06       	cpc	r14, r24
     8ec:	86 ee       	ldi	r24, 0xE6	; 230
     8ee:	f8 06       	cpc	r15, r24
     8f0:	09 f4       	brne	.+2      	; 0x8f4 <__FUSE_REGION_LENGTH__+0x4f4>
     8f2:	8b c0       	rjmp	.+278    	; 0xa0a <__stack+0x10b>
     8f4:	51 c2       	rjmp	.+1186   	; 0xd98 <__stack+0x499>
     8f6:	85 e3       	ldi	r24, 0x35	; 53
     8f8:	c8 16       	cp	r12, r24
     8fa:	88 ec       	ldi	r24, 0xC8	; 200
     8fc:	d8 06       	cpc	r13, r24
     8fe:	8b e9       	ldi	r24, 0x9B	; 155
     900:	e8 06       	cpc	r14, r24
     902:	8c ee       	ldi	r24, 0xEC	; 236
     904:	f8 06       	cpc	r15, r24
     906:	09 f4       	brne	.+2      	; 0x90a <__stack+0xb>
     908:	25 c1       	rjmp	.+586    	; 0xb54 <__stack+0x255>
     90a:	82 e5       	ldi	r24, 0x52	; 82
     90c:	c8 16       	cp	r12, r24
     90e:	86 e0       	ldi	r24, 0x06	; 6
     910:	d8 06       	cpc	r13, r24
     912:	8c e8       	ldi	r24, 0x8C	; 140
     914:	e8 06       	cpc	r14, r24
     916:	85 ef       	ldi	r24, 0xF5	; 245
     918:	f8 06       	cpc	r15, r24
     91a:	09 f4       	brne	.+2      	; 0x91e <__stack+0x1f>
     91c:	1c c2       	rjmp	.+1080   	; 0xd56 <__stack+0x457>
     91e:	3c c2       	rjmp	.+1144   	; 0xd98 <__stack+0x499>
     920:	86 e2       	ldi	r24, 0x26	; 38
     922:	c8 16       	cp	r12, r24
     924:	85 e5       	ldi	r24, 0x55	; 85
     926:	d8 06       	cpc	r13, r24
     928:	88 eb       	ldi	r24, 0xB8	; 184
     92a:	e8 06       	cpc	r14, r24
     92c:	8b ef       	ldi	r24, 0xFB	; 251
     92e:	f8 06       	cpc	r15, r24
     930:	09 f4       	brne	.+2      	; 0x934 <__stack+0x35>
     932:	05 c2       	rjmp	.+1034   	; 0xd3e <__stack+0x43f>
     934:	58 f4       	brcc	.+22     	; 0x94c <__stack+0x4d>
     936:	88 e3       	ldi	r24, 0x38	; 56
     938:	c8 16       	cp	r12, r24
     93a:	80 ea       	ldi	r24, 0xA0	; 160
     93c:	d8 06       	cpc	r13, r24
     93e:	88 ec       	ldi	r24, 0xC8	; 200
     940:	e8 06       	cpc	r14, r24
     942:	88 ef       	ldi	r24, 0xF8	; 248
     944:	f8 06       	cpc	r15, r24
     946:	09 f4       	brne	.+2      	; 0x94a <__stack+0x4b>
     948:	41 c1       	rjmp	.+642    	; 0xbcc <__stack+0x2cd>
     94a:	26 c2       	rjmp	.+1100   	; 0xd98 <__stack+0x499>
     94c:	80 ec       	ldi	r24, 0xC0	; 192
     94e:	c8 16       	cp	r12, r24
     950:	85 eb       	ldi	r24, 0xB5	; 181
     952:	d8 06       	cpc	r13, r24
     954:	8b e1       	ldi	r24, 0x1B	; 27
     956:	e8 06       	cpc	r14, r24
     958:	8e ef       	ldi	r24, 0xFE	; 254
     95a:	f8 06       	cpc	r15, r24
     95c:	09 f4       	brne	.+2      	; 0x960 <__stack+0x61>
     95e:	03 c1       	rjmp	.+518    	; 0xb66 <__stack+0x267>
     960:	8b e1       	ldi	r24, 0x1B	; 27
     962:	c8 16       	cp	r12, r24
     964:	8c ef       	ldi	r24, 0xFC	; 252
     966:	d8 06       	cpc	r13, r24
     968:	8f e4       	ldi	r24, 0x4F	; 79
     96a:	e8 06       	cpc	r14, r24
     96c:	8f ef       	ldi	r24, 0xFF	; 255
     96e:	f8 06       	cpc	r15, r24
     970:	09 f4       	brne	.+2      	; 0x974 <__stack+0x75>
     972:	a3 c0       	rjmp	.+326    	; 0xaba <__stack+0x1bb>
     974:	11 c2       	rjmp	.+1058   	; 0xd98 <__stack+0x499>
     976:	cf 91       	pop	r28
     978:	ff 90       	pop	r15
     97a:	ef 90       	pop	r14
     97c:	df 90       	pop	r13
     97e:	cf 90       	pop	r12
     980:	0c 94 4a 01 	jmp	0x294	; 0x294 <_press_pwr_btn>
     984:	cc 23       	and	r28, r28
     986:	29 f0       	breq	.+10     	; 0x992 <__stack+0x93>
     988:	c1 30       	cpi	r28, 0x01	; 1
     98a:	29 f4       	brne	.+10     	; 0x996 <__stack+0x97>
     98c:	80 ef       	ldi	r24, 0xF0	; 240
     98e:	0e 94 45 0d 	call	0x1a8a	; 0x1a8a <add_char_to_send_buf>
     992:	81 e2       	ldi	r24, 0x21	; 33
     994:	f8 c1       	rjmp	.+1008   	; 0xd86 <__stack+0x487>
     996:	cc 23       	and	r28, r28
     998:	29 f0       	breq	.+10     	; 0x9a4 <__stack+0xa5>
     99a:	c1 30       	cpi	r28, 0x01	; 1
     99c:	29 f4       	brne	.+10     	; 0x9a8 <__stack+0xa9>
     99e:	80 ef       	ldi	r24, 0xF0	; 240
     9a0:	0e 94 45 0d 	call	0x1a8a	; 0x1a8a <add_char_to_send_buf>
     9a4:	83 e4       	ldi	r24, 0x43	; 67
     9a6:	ef c1       	rjmp	.+990    	; 0xd86 <__stack+0x487>
     9a8:	cc 23       	and	r28, r28
     9aa:	29 f0       	breq	.+10     	; 0x9b6 <__stack+0xb7>
     9ac:	c1 30       	cpi	r28, 0x01	; 1
     9ae:	29 f4       	brne	.+10     	; 0x9ba <__stack+0xbb>
     9b0:	80 ef       	ldi	r24, 0xF0	; 240
     9b2:	0e 94 45 0d 	call	0x1a8a	; 0x1a8a <add_char_to_send_buf>
     9b6:	8a e3       	ldi	r24, 0x3A	; 58
     9b8:	e6 c1       	rjmp	.+972    	; 0xd86 <__stack+0x487>
     9ba:	cc 23       	and	r28, r28
     9bc:	29 f0       	breq	.+10     	; 0x9c8 <__stack+0xc9>
     9be:	c1 30       	cpi	r28, 0x01	; 1
     9c0:	29 f4       	brne	.+10     	; 0x9cc <__stack+0xcd>
     9c2:	80 ef       	ldi	r24, 0xF0	; 240
     9c4:	0e 94 45 0d 	call	0x1a8a	; 0x1a8a <add_char_to_send_buf>
     9c8:	84 e4       	ldi	r24, 0x44	; 68
     9ca:	dd c1       	rjmp	.+954    	; 0xd86 <__stack+0x487>
     9cc:	cc 23       	and	r28, r28
     9ce:	09 f4       	brne	.+2      	; 0x9d2 <__stack+0xd3>
     9d0:	4e c1       	rjmp	.+668    	; 0xc6e <__stack+0x36f>
     9d2:	c1 30       	cpi	r28, 0x01	; 1
     9d4:	11 f4       	brne	.+4      	; 0x9da <__stack+0xdb>
     9d6:	80 ef       	ldi	r24, 0xF0	; 240
     9d8:	48 c1       	rjmp	.+656    	; 0xc6a <__stack+0x36b>
     9da:	cc 23       	and	r28, r28
     9dc:	a1 f0       	breq	.+40     	; 0xa06 <__stack+0x107>
     9de:	c1 30       	cpi	r28, 0x01	; 1
     9e0:	21 f4       	brne	.+8      	; 0x9ea <__stack+0xeb>
     9e2:	80 ef       	ldi	r24, 0xF0	; 240
     9e4:	0e 94 45 0d 	call	0x1a8a	; 0x1a8a <add_char_to_send_buf>
     9e8:	0e c0       	rjmp	.+28     	; 0xa06 <__stack+0x107>
     9ea:	cc 23       	and	r28, r28
     9ec:	39 f0       	breq	.+14     	; 0x9fc <__stack+0xfd>
     9ee:	c1 30       	cpi	r28, 0x01	; 1
     9f0:	61 f4       	brne	.+24     	; 0xa0a <__stack+0x10b>
     9f2:	80 ef       	ldi	r24, 0xF0	; 240
     9f4:	0e 94 45 0d 	call	0x1a8a	; 0x1a8a <add_char_to_send_buf>
     9f8:	8c e2       	ldi	r24, 0x2C	; 44
     9fa:	8b c0       	rjmp	.+278    	; 0xb12 <__stack+0x213>
     9fc:	84 e1       	ldi	r24, 0x14	; 20
     9fe:	0e 94 45 0d 	call	0x1a8a	; 0x1a8a <add_char_to_send_buf>
     a02:	0e 94 3a 0c 	call	0x1874	; 0x1874 <do_ps2device_work>
     a06:	8c e2       	ldi	r24, 0x2C	; 44
     a08:	be c1       	rjmp	.+892    	; 0xd86 <__stack+0x487>
     a0a:	cc 23       	and	r28, r28
     a0c:	29 f0       	breq	.+10     	; 0xa18 <__stack+0x119>
     a0e:	c1 30       	cpi	r28, 0x01	; 1
     a10:	29 f4       	brne	.+10     	; 0xa1c <__stack+0x11d>
     a12:	80 ef       	ldi	r24, 0xF0	; 240
     a14:	0e 94 45 0d 	call	0x1a8a	; 0x1a8a <add_char_to_send_buf>
     a18:	85 e3       	ldi	r24, 0x35	; 53
     a1a:	b5 c1       	rjmp	.+874    	; 0xd86 <__stack+0x487>
     a1c:	cc 23       	and	r28, r28
     a1e:	91 f1       	breq	.+100    	; 0xa84 <__stack+0x185>
     a20:	c1 30       	cpi	r28, 0x01	; 1
     a22:	21 f4       	brne	.+8      	; 0xa2c <__stack+0x12d>
     a24:	80 ef       	ldi	r24, 0xF0	; 240
     a26:	0e 94 45 0d 	call	0x1a8a	; 0x1a8a <add_char_to_send_buf>
     a2a:	2c c0       	rjmp	.+88     	; 0xa84 <__stack+0x185>
     a2c:	cc 23       	and	r28, r28
     a2e:	09 f4       	brne	.+2      	; 0xa32 <__stack+0x133>
     a30:	3f c0       	rjmp	.+126    	; 0xab0 <__stack+0x1b1>
     a32:	c1 30       	cpi	r28, 0x01	; 1
     a34:	21 f4       	brne	.+8      	; 0xa3e <__stack+0x13f>
     a36:	80 ef       	ldi	r24, 0xF0	; 240
     a38:	0e 94 45 0d 	call	0x1a8a	; 0x1a8a <add_char_to_send_buf>
     a3c:	39 c0       	rjmp	.+114    	; 0xab0 <__stack+0x1b1>
     a3e:	cc 23       	and	r28, r28
     a40:	09 f4       	brne	.+2      	; 0xa44 <__stack+0x145>
     a42:	4c c0       	rjmp	.+152    	; 0xadc <__stack+0x1dd>
     a44:	c1 30       	cpi	r28, 0x01	; 1
     a46:	21 f4       	brne	.+8      	; 0xa50 <__stack+0x151>
     a48:	80 ef       	ldi	r24, 0xF0	; 240
     a4a:	0e 94 45 0d 	call	0x1a8a	; 0x1a8a <add_char_to_send_buf>
     a4e:	46 c0       	rjmp	.+140    	; 0xadc <__stack+0x1dd>
     a50:	cc 23       	and	r28, r28
     a52:	09 f4       	brne	.+2      	; 0xa56 <__stack+0x157>
     a54:	59 c0       	rjmp	.+178    	; 0xb08 <__stack+0x209>
     a56:	c1 30       	cpi	r28, 0x01	; 1
     a58:	21 f4       	brne	.+8      	; 0xa62 <__stack+0x163>
     a5a:	80 ef       	ldi	r24, 0xF0	; 240
     a5c:	0e 94 45 0d 	call	0x1a8a	; 0x1a8a <add_char_to_send_buf>
     a60:	53 c0       	rjmp	.+166    	; 0xb08 <__stack+0x209>
     a62:	cc 23       	and	r28, r28
     a64:	51 f0       	breq	.+20     	; 0xa7a <__stack+0x17b>
     a66:	c1 30       	cpi	r28, 0x01	; 1
     a68:	91 f4       	brne	.+36     	; 0xa8e <__stack+0x18f>
     a6a:	80 ef       	ldi	r24, 0xF0	; 240
     a6c:	0e 94 45 0d 	call	0x1a8a	; 0x1a8a <add_char_to_send_buf>
     a70:	80 ee       	ldi	r24, 0xE0	; 224
     a72:	0e 94 45 0d 	call	0x1a8a	; 0x1a8a <add_char_to_send_buf>
     a76:	8b e6       	ldi	r24, 0x6B	; 107
     a78:	4c c0       	rjmp	.+152    	; 0xb12 <__stack+0x213>
     a7a:	84 e1       	ldi	r24, 0x14	; 20
     a7c:	0e 94 45 0d 	call	0x1a8a	; 0x1a8a <add_char_to_send_buf>
     a80:	0e 94 3a 0c 	call	0x1874	; 0x1874 <do_ps2device_work>
     a84:	80 ee       	ldi	r24, 0xE0	; 224
     a86:	0e 94 45 0d 	call	0x1a8a	; 0x1a8a <add_char_to_send_buf>
     a8a:	8b e6       	ldi	r24, 0x6B	; 107
     a8c:	7c c1       	rjmp	.+760    	; 0xd86 <__stack+0x487>
     a8e:	cc 23       	and	r28, r28
     a90:	51 f0       	breq	.+20     	; 0xaa6 <__stack+0x1a7>
     a92:	c1 30       	cpi	r28, 0x01	; 1
     a94:	91 f4       	brne	.+36     	; 0xaba <__stack+0x1bb>
     a96:	80 ef       	ldi	r24, 0xF0	; 240
     a98:	0e 94 45 0d 	call	0x1a8a	; 0x1a8a <add_char_to_send_buf>
     a9c:	80 ee       	ldi	r24, 0xE0	; 224
     a9e:	0e 94 45 0d 	call	0x1a8a	; 0x1a8a <add_char_to_send_buf>
     aa2:	84 e7       	ldi	r24, 0x74	; 116
     aa4:	36 c0       	rjmp	.+108    	; 0xb12 <__stack+0x213>
     aa6:	84 e1       	ldi	r24, 0x14	; 20
     aa8:	0e 94 45 0d 	call	0x1a8a	; 0x1a8a <add_char_to_send_buf>
     aac:	0e 94 3a 0c 	call	0x1874	; 0x1874 <do_ps2device_work>
     ab0:	80 ee       	ldi	r24, 0xE0	; 224
     ab2:	0e 94 45 0d 	call	0x1a8a	; 0x1a8a <add_char_to_send_buf>
     ab6:	84 e7       	ldi	r24, 0x74	; 116
     ab8:	66 c1       	rjmp	.+716    	; 0xd86 <__stack+0x487>
     aba:	cc 23       	and	r28, r28
     abc:	51 f0       	breq	.+20     	; 0xad2 <__stack+0x1d3>
     abe:	c1 30       	cpi	r28, 0x01	; 1
     ac0:	91 f4       	brne	.+36     	; 0xae6 <__stack+0x1e7>
     ac2:	80 ef       	ldi	r24, 0xF0	; 240
     ac4:	0e 94 45 0d 	call	0x1a8a	; 0x1a8a <add_char_to_send_buf>
     ac8:	80 ee       	ldi	r24, 0xE0	; 224
     aca:	0e 94 45 0d 	call	0x1a8a	; 0x1a8a <add_char_to_send_buf>
     ace:	85 e7       	ldi	r24, 0x75	; 117
     ad0:	20 c0       	rjmp	.+64     	; 0xb12 <__stack+0x213>
     ad2:	84 e1       	ldi	r24, 0x14	; 20
     ad4:	0e 94 45 0d 	call	0x1a8a	; 0x1a8a <add_char_to_send_buf>
     ad8:	0e 94 3a 0c 	call	0x1874	; 0x1874 <do_ps2device_work>
     adc:	80 ee       	ldi	r24, 0xE0	; 224
     ade:	0e 94 45 0d 	call	0x1a8a	; 0x1a8a <add_char_to_send_buf>
     ae2:	85 e7       	ldi	r24, 0x75	; 117
     ae4:	50 c1       	rjmp	.+672    	; 0xd86 <__stack+0x487>
     ae6:	cc 23       	and	r28, r28
     ae8:	51 f0       	breq	.+20     	; 0xafe <__stack+0x1ff>
     aea:	c1 30       	cpi	r28, 0x01	; 1
     aec:	d9 f4       	brne	.+54     	; 0xb24 <__stack+0x225>
     aee:	80 ef       	ldi	r24, 0xF0	; 240
     af0:	0e 94 45 0d 	call	0x1a8a	; 0x1a8a <add_char_to_send_buf>
     af4:	80 ee       	ldi	r24, 0xE0	; 224
     af6:	0e 94 45 0d 	call	0x1a8a	; 0x1a8a <add_char_to_send_buf>
     afa:	82 e7       	ldi	r24, 0x72	; 114
     afc:	0a c0       	rjmp	.+20     	; 0xb12 <__stack+0x213>
     afe:	84 e1       	ldi	r24, 0x14	; 20
     b00:	0e 94 45 0d 	call	0x1a8a	; 0x1a8a <add_char_to_send_buf>
     b04:	0e 94 3a 0c 	call	0x1874	; 0x1874 <do_ps2device_work>
     b08:	80 ee       	ldi	r24, 0xE0	; 224
     b0a:	0e 94 45 0d 	call	0x1a8a	; 0x1a8a <add_char_to_send_buf>
     b0e:	82 e7       	ldi	r24, 0x72	; 114
     b10:	3a c1       	rjmp	.+628    	; 0xd86 <__stack+0x487>
     b12:	0e 94 45 0d 	call	0x1a8a	; 0x1a8a <add_char_to_send_buf>
     b16:	0e 94 3a 0c 	call	0x1874	; 0x1874 <do_ps2device_work>
     b1a:	80 ef       	ldi	r24, 0xF0	; 240
     b1c:	0e 94 45 0d 	call	0x1a8a	; 0x1a8a <add_char_to_send_buf>
     b20:	84 e1       	ldi	r24, 0x14	; 20
     b22:	31 c1       	rjmp	.+610    	; 0xd86 <__stack+0x487>
     b24:	cc 23       	and	r28, r28
     b26:	29 f0       	breq	.+10     	; 0xb32 <__stack+0x233>
     b28:	c1 30       	cpi	r28, 0x01	; 1
     b2a:	41 f4       	brne	.+16     	; 0xb3c <__stack+0x23d>
     b2c:	80 ef       	ldi	r24, 0xF0	; 240
     b2e:	0e 94 45 0d 	call	0x1a8a	; 0x1a8a <add_char_to_send_buf>
     b32:	80 ee       	ldi	r24, 0xE0	; 224
     b34:	0e 94 45 0d 	call	0x1a8a	; 0x1a8a <add_char_to_send_buf>
     b38:	8d e7       	ldi	r24, 0x7D	; 125
     b3a:	25 c1       	rjmp	.+586    	; 0xd86 <__stack+0x487>
     b3c:	cc 23       	and	r28, r28
     b3e:	29 f0       	breq	.+10     	; 0xb4a <__stack+0x24b>
     b40:	c1 30       	cpi	r28, 0x01	; 1
     b42:	41 f4       	brne	.+16     	; 0xb54 <__stack+0x255>
     b44:	80 ef       	ldi	r24, 0xF0	; 240
     b46:	0e 94 45 0d 	call	0x1a8a	; 0x1a8a <add_char_to_send_buf>
     b4a:	80 ee       	ldi	r24, 0xE0	; 224
     b4c:	0e 94 45 0d 	call	0x1a8a	; 0x1a8a <add_char_to_send_buf>
     b50:	8a e7       	ldi	r24, 0x7A	; 122
     b52:	19 c1       	rjmp	.+562    	; 0xd86 <__stack+0x487>
     b54:	cc 23       	and	r28, r28
     b56:	29 f0       	breq	.+10     	; 0xb62 <__stack+0x263>
     b58:	c1 30       	cpi	r28, 0x01	; 1
     b5a:	29 f4       	brne	.+10     	; 0xb66 <__stack+0x267>
     b5c:	80 ef       	ldi	r24, 0xF0	; 240
     b5e:	0e 94 45 0d 	call	0x1a8a	; 0x1a8a <add_char_to_send_buf>
     b62:	8a e5       	ldi	r24, 0x5A	; 90
     b64:	10 c1       	rjmp	.+544    	; 0xd86 <__stack+0x487>
     b66:	cc 23       	and	r28, r28
     b68:	29 f0       	breq	.+10     	; 0xb74 <__stack+0x275>
     b6a:	c1 30       	cpi	r28, 0x01	; 1
     b6c:	29 f4       	brne	.+10     	; 0xb78 <__stack+0x279>
     b6e:	80 ef       	ldi	r24, 0xF0	; 240
     b70:	0e 94 45 0d 	call	0x1a8a	; 0x1a8a <add_char_to_send_buf>
     b74:	86 e6       	ldi	r24, 0x66	; 102
     b76:	07 c1       	rjmp	.+526    	; 0xd86 <__stack+0x487>
     b78:	cc 23       	and	r28, r28
     b7a:	29 f0       	breq	.+10     	; 0xb86 <__stack+0x287>
     b7c:	c1 30       	cpi	r28, 0x01	; 1
     b7e:	29 f4       	brne	.+10     	; 0xb8a <__stack+0x28b>
     b80:	80 ef       	ldi	r24, 0xF0	; 240
     b82:	0e 94 45 0d 	call	0x1a8a	; 0x1a8a <add_char_to_send_buf>
     b86:	86 e7       	ldi	r24, 0x76	; 118
     b88:	fe c0       	rjmp	.+508    	; 0xd86 <__stack+0x487>
     b8a:	cc 23       	and	r28, r28
     b8c:	79 f0       	breq	.+30     	; 0xbac <__stack+0x2ad>
     b8e:	c1 30       	cpi	r28, 0x01	; 1
     b90:	a1 f4       	brne	.+40     	; 0xbba <__stack+0x2bb>
     b92:	80 ef       	ldi	r24, 0xF0	; 240
     b94:	0e 94 45 0d 	call	0x1a8a	; 0x1a8a <add_char_to_send_buf>
     b98:	8d e5       	ldi	r24, 0x5D	; 93
     b9a:	0e 94 45 0d 	call	0x1a8a	; 0x1a8a <add_char_to_send_buf>
     b9e:	0e 94 3a 0c 	call	0x1874	; 0x1874 <do_ps2device_work>
     ba2:	80 ef       	ldi	r24, 0xF0	; 240
     ba4:	0e 94 45 0d 	call	0x1a8a	; 0x1a8a <add_char_to_send_buf>
     ba8:	82 e1       	ldi	r24, 0x12	; 18
     baa:	ed c0       	rjmp	.+474    	; 0xd86 <__stack+0x487>
     bac:	82 e1       	ldi	r24, 0x12	; 18
     bae:	0e 94 45 0d 	call	0x1a8a	; 0x1a8a <add_char_to_send_buf>
     bb2:	0e 94 3a 0c 	call	0x1874	; 0x1874 <do_ps2device_work>
     bb6:	8d e5       	ldi	r24, 0x5D	; 93
     bb8:	e6 c0       	rjmp	.+460    	; 0xd86 <__stack+0x487>
     bba:	cc 23       	and	r28, r28
     bbc:	29 f0       	breq	.+10     	; 0xbc8 <__stack+0x2c9>
     bbe:	c1 30       	cpi	r28, 0x01	; 1
     bc0:	29 f4       	brne	.+10     	; 0xbcc <__stack+0x2cd>
     bc2:	80 ef       	ldi	r24, 0xF0	; 240
     bc4:	0e 94 45 0d 	call	0x1a8a	; 0x1a8a <add_char_to_send_buf>
     bc8:	8d e0       	ldi	r24, 0x0D	; 13
     bca:	dd c0       	rjmp	.+442    	; 0xd86 <__stack+0x487>
     bcc:	cc 23       	and	r28, r28
     bce:	39 f0       	breq	.+14     	; 0xbde <__stack+0x2df>
     bd0:	c1 30       	cpi	r28, 0x01	; 1
     bd2:	79 f4       	brne	.+30     	; 0xbf2 <__stack+0x2f3>
     bd4:	80 ef       	ldi	r24, 0xF0	; 240
     bd6:	0e 94 45 0d 	call	0x1a8a	; 0x1a8a <add_char_to_send_buf>
     bda:	8e e3       	ldi	r24, 0x3E	; 62
     bdc:	1d c0       	rjmp	.+58     	; 0xc18 <__stack+0x319>
     bde:	80 ee       	ldi	r24, 0xE0	; 224
     be0:	0e 94 45 0d 	call	0x1a8a	; 0x1a8a <add_char_to_send_buf>
     be4:	81 e1       	ldi	r24, 0x11	; 17
     be6:	0e 94 45 0d 	call	0x1a8a	; 0x1a8a <add_char_to_send_buf>
     bea:	0e 94 3a 0c 	call	0x1874	; 0x1874 <do_ps2device_work>
     bee:	8e e3       	ldi	r24, 0x3E	; 62
     bf0:	ca c0       	rjmp	.+404    	; 0xd86 <__stack+0x487>
     bf2:	cc 23       	and	r28, r28
     bf4:	39 f0       	breq	.+14     	; 0xc04 <__stack+0x305>
     bf6:	c1 30       	cpi	r28, 0x01	; 1
     bf8:	c1 f4       	brne	.+48     	; 0xc2a <__stack+0x32b>
     bfa:	80 ef       	ldi	r24, 0xF0	; 240
     bfc:	0e 94 45 0d 	call	0x1a8a	; 0x1a8a <add_char_to_send_buf>
     c00:	86 e4       	ldi	r24, 0x46	; 70
     c02:	0a c0       	rjmp	.+20     	; 0xc18 <__stack+0x319>
     c04:	80 ee       	ldi	r24, 0xE0	; 224
     c06:	0e 94 45 0d 	call	0x1a8a	; 0x1a8a <add_char_to_send_buf>
     c0a:	81 e1       	ldi	r24, 0x11	; 17
     c0c:	0e 94 45 0d 	call	0x1a8a	; 0x1a8a <add_char_to_send_buf>
     c10:	0e 94 3a 0c 	call	0x1874	; 0x1874 <do_ps2device_work>
     c14:	86 e4       	ldi	r24, 0x46	; 70
     c16:	b7 c0       	rjmp	.+366    	; 0xd86 <__stack+0x487>
     c18:	0e 94 45 0d 	call	0x1a8a	; 0x1a8a <add_char_to_send_buf>
     c1c:	0e 94 3a 0c 	call	0x1874	; 0x1874 <do_ps2device_work>
     c20:	80 ef       	ldi	r24, 0xF0	; 240
     c22:	0e 94 45 0d 	call	0x1a8a	; 0x1a8a <add_char_to_send_buf>
     c26:	80 ee       	ldi	r24, 0xE0	; 224
     c28:	ab c0       	rjmp	.+342    	; 0xd80 <__stack+0x481>
     c2a:	cc 23       	and	r28, r28
     c2c:	29 f0       	breq	.+10     	; 0xc38 <__stack+0x339>
     c2e:	c1 30       	cpi	r28, 0x01	; 1
     c30:	41 f4       	brne	.+16     	; 0xc42 <__stack+0x343>
     c32:	80 ef       	ldi	r24, 0xF0	; 240
     c34:	0e 94 45 0d 	call	0x1a8a	; 0x1a8a <add_char_to_send_buf>
     c38:	80 ee       	ldi	r24, 0xE0	; 224
     c3a:	0e 94 45 0d 	call	0x1a8a	; 0x1a8a <add_char_to_send_buf>
     c3e:	84 e3       	ldi	r24, 0x34	; 52
     c40:	a2 c0       	rjmp	.+324    	; 0xd86 <__stack+0x487>
     c42:	cc 23       	and	r28, r28
     c44:	29 f0       	breq	.+10     	; 0xc50 <__stack+0x351>
     c46:	c1 30       	cpi	r28, 0x01	; 1
     c48:	41 f4       	brne	.+16     	; 0xc5a <__stack+0x35b>
     c4a:	80 ef       	ldi	r24, 0xF0	; 240
     c4c:	0e 94 45 0d 	call	0x1a8a	; 0x1a8a <add_char_to_send_buf>
     c50:	80 ee       	ldi	r24, 0xE0	; 224
     c52:	0e 94 45 0d 	call	0x1a8a	; 0x1a8a <add_char_to_send_buf>
     c56:	8b e3       	ldi	r24, 0x3B	; 59
     c58:	96 c0       	rjmp	.+300    	; 0xd86 <__stack+0x487>
     c5a:	cc 23       	and	r28, r28
     c5c:	29 f0       	breq	.+10     	; 0xc68 <__stack+0x369>
     c5e:	c1 30       	cpi	r28, 0x01	; 1
     c60:	41 f4       	brne	.+16     	; 0xc72 <__stack+0x373>
     c62:	80 ef       	ldi	r24, 0xF0	; 240
     c64:	0e 94 45 0d 	call	0x1a8a	; 0x1a8a <add_char_to_send_buf>
     c68:	80 ee       	ldi	r24, 0xE0	; 224
     c6a:	0e 94 45 0d 	call	0x1a8a	; 0x1a8a <add_char_to_send_buf>
     c6e:	8d e4       	ldi	r24, 0x4D	; 77
     c70:	8a c0       	rjmp	.+276    	; 0xd86 <__stack+0x487>
     c72:	cc 23       	and	r28, r28
     c74:	29 f0       	breq	.+10     	; 0xc80 <__stack+0x381>
     c76:	c1 30       	cpi	r28, 0x01	; 1
     c78:	41 f4       	brne	.+16     	; 0xc8a <__stack+0x38b>
     c7a:	80 ef       	ldi	r24, 0xF0	; 240
     c7c:	0e 94 45 0d 	call	0x1a8a	; 0x1a8a <add_char_to_send_buf>
     c80:	80 ee       	ldi	r24, 0xE0	; 224
     c82:	0e 94 45 0d 	call	0x1a8a	; 0x1a8a <add_char_to_send_buf>
     c86:	85 e1       	ldi	r24, 0x15	; 21
     c88:	7e c0       	rjmp	.+252    	; 0xd86 <__stack+0x487>
     c8a:	cc 23       	and	r28, r28
     c8c:	29 f0       	breq	.+10     	; 0xc98 <__stack+0x399>
     c8e:	c1 30       	cpi	r28, 0x01	; 1
     c90:	29 f4       	brne	.+10     	; 0xc9c <__stack+0x39d>
     c92:	80 ef       	ldi	r24, 0xF0	; 240
     c94:	0e 94 45 0d 	call	0x1a8a	; 0x1a8a <add_char_to_send_buf>
     c98:	8a e2       	ldi	r24, 0x2A	; 42
     c9a:	75 c0       	rjmp	.+234    	; 0xd86 <__stack+0x487>
     c9c:	cc 23       	and	r28, r28
     c9e:	39 f0       	breq	.+14     	; 0xcae <__stack+0x3af>
     ca0:	c1 30       	cpi	r28, 0x01	; 1
     ca2:	79 f4       	brne	.+30     	; 0xcc2 <__stack+0x3c3>
     ca4:	80 ef       	ldi	r24, 0xF0	; 240
     ca6:	0e 94 45 0d 	call	0x1a8a	; 0x1a8a <add_char_to_send_buf>
     caa:	86 e1       	ldi	r24, 0x16	; 22
     cac:	43 c0       	rjmp	.+134    	; 0xd34 <__stack+0x435>
     cae:	80 ee       	ldi	r24, 0xE0	; 224
     cb0:	0e 94 45 0d 	call	0x1a8a	; 0x1a8a <add_char_to_send_buf>
     cb4:	87 e2       	ldi	r24, 0x27	; 39
     cb6:	0e 94 45 0d 	call	0x1a8a	; 0x1a8a <add_char_to_send_buf>
     cba:	0e 94 3a 0c 	call	0x1874	; 0x1874 <do_ps2device_work>
     cbe:	86 e1       	ldi	r24, 0x16	; 22
     cc0:	62 c0       	rjmp	.+196    	; 0xd86 <__stack+0x487>
     cc2:	cc 23       	and	r28, r28
     cc4:	39 f0       	breq	.+14     	; 0xcd4 <__stack+0x3d5>
     cc6:	c1 30       	cpi	r28, 0x01	; 1
     cc8:	79 f4       	brne	.+30     	; 0xce8 <__stack+0x3e9>
     cca:	80 ef       	ldi	r24, 0xF0	; 240
     ccc:	0e 94 45 0d 	call	0x1a8a	; 0x1a8a <add_char_to_send_buf>
     cd0:	8e e1       	ldi	r24, 0x1E	; 30
     cd2:	30 c0       	rjmp	.+96     	; 0xd34 <__stack+0x435>
     cd4:	80 ee       	ldi	r24, 0xE0	; 224
     cd6:	0e 94 45 0d 	call	0x1a8a	; 0x1a8a <add_char_to_send_buf>
     cda:	87 e2       	ldi	r24, 0x27	; 39
     cdc:	0e 94 45 0d 	call	0x1a8a	; 0x1a8a <add_char_to_send_buf>
     ce0:	0e 94 3a 0c 	call	0x1874	; 0x1874 <do_ps2device_work>
     ce4:	8e e1       	ldi	r24, 0x1E	; 30
     ce6:	4f c0       	rjmp	.+158    	; 0xd86 <__stack+0x487>
     ce8:	cc 23       	and	r28, r28
     cea:	39 f0       	breq	.+14     	; 0xcfa <__stack+0x3fb>
     cec:	c1 30       	cpi	r28, 0x01	; 1
     cee:	79 f4       	brne	.+30     	; 0xd0e <__stack+0x40f>
     cf0:	80 ef       	ldi	r24, 0xF0	; 240
     cf2:	0e 94 45 0d 	call	0x1a8a	; 0x1a8a <add_char_to_send_buf>
     cf6:	86 e2       	ldi	r24, 0x26	; 38
     cf8:	1d c0       	rjmp	.+58     	; 0xd34 <__stack+0x435>
     cfa:	80 ee       	ldi	r24, 0xE0	; 224
     cfc:	0e 94 45 0d 	call	0x1a8a	; 0x1a8a <add_char_to_send_buf>
     d00:	87 e2       	ldi	r24, 0x27	; 39
     d02:	0e 94 45 0d 	call	0x1a8a	; 0x1a8a <add_char_to_send_buf>
     d06:	0e 94 3a 0c 	call	0x1874	; 0x1874 <do_ps2device_work>
     d0a:	86 e2       	ldi	r24, 0x26	; 38
     d0c:	3c c0       	rjmp	.+120    	; 0xd86 <__stack+0x487>
     d0e:	cc 23       	and	r28, r28
     d10:	39 f0       	breq	.+14     	; 0xd20 <__stack+0x421>
     d12:	c1 30       	cpi	r28, 0x01	; 1
     d14:	a1 f4       	brne	.+40     	; 0xd3e <__stack+0x43f>
     d16:	80 ef       	ldi	r24, 0xF0	; 240
     d18:	0e 94 45 0d 	call	0x1a8a	; 0x1a8a <add_char_to_send_buf>
     d1c:	85 e2       	ldi	r24, 0x25	; 37
     d1e:	0a c0       	rjmp	.+20     	; 0xd34 <__stack+0x435>
     d20:	80 ee       	ldi	r24, 0xE0	; 224
     d22:	0e 94 45 0d 	call	0x1a8a	; 0x1a8a <add_char_to_send_buf>
     d26:	87 e2       	ldi	r24, 0x27	; 39
     d28:	0e 94 45 0d 	call	0x1a8a	; 0x1a8a <add_char_to_send_buf>
     d2c:	0e 94 3a 0c 	call	0x1874	; 0x1874 <do_ps2device_work>
     d30:	85 e2       	ldi	r24, 0x25	; 37
     d32:	29 c0       	rjmp	.+82     	; 0xd86 <__stack+0x487>
     d34:	0e 94 45 0d 	call	0x1a8a	; 0x1a8a <add_char_to_send_buf>
     d38:	0e 94 3a 0c 	call	0x1874	; 0x1874 <do_ps2device_work>
     d3c:	04 c0       	rjmp	.+8      	; 0xd46 <__stack+0x447>
     d3e:	cc 23       	and	r28, r28
     d40:	29 f0       	breq	.+10     	; 0xd4c <__stack+0x44d>
     d42:	c1 30       	cpi	r28, 0x01	; 1
     d44:	41 f4       	brne	.+16     	; 0xd56 <__stack+0x457>
     d46:	80 ef       	ldi	r24, 0xF0	; 240
     d48:	0e 94 45 0d 	call	0x1a8a	; 0x1a8a <add_char_to_send_buf>
     d4c:	80 ee       	ldi	r24, 0xE0	; 224
     d4e:	0e 94 45 0d 	call	0x1a8a	; 0x1a8a <add_char_to_send_buf>
     d52:	87 e2       	ldi	r24, 0x27	; 39
     d54:	18 c0       	rjmp	.+48     	; 0xd86 <__stack+0x487>
     d56:	cc 23       	and	r28, r28
     d58:	61 f0       	breq	.+24     	; 0xd72 <__stack+0x473>
     d5a:	c1 30       	cpi	r28, 0x01	; 1
     d5c:	e9 f4       	brne	.+58     	; 0xd98 <__stack+0x499>
     d5e:	80 ef       	ldi	r24, 0xF0	; 240
     d60:	0e 94 45 0d 	call	0x1a8a	; 0x1a8a <add_char_to_send_buf>
     d64:	8c e0       	ldi	r24, 0x0C	; 12
     d66:	0e 94 45 0d 	call	0x1a8a	; 0x1a8a <add_char_to_send_buf>
     d6a:	0e 94 3a 0c 	call	0x1874	; 0x1874 <do_ps2device_work>
     d6e:	80 ef       	ldi	r24, 0xF0	; 240
     d70:	07 c0       	rjmp	.+14     	; 0xd80 <__stack+0x481>
     d72:	81 e1       	ldi	r24, 0x11	; 17
     d74:	0e 94 45 0d 	call	0x1a8a	; 0x1a8a <add_char_to_send_buf>
     d78:	0e 94 3a 0c 	call	0x1874	; 0x1874 <do_ps2device_work>
     d7c:	8c e0       	ldi	r24, 0x0C	; 12
     d7e:	03 c0       	rjmp	.+6      	; 0xd86 <__stack+0x487>
     d80:	0e 94 45 0d 	call	0x1a8a	; 0x1a8a <add_char_to_send_buf>
     d84:	81 e1       	ldi	r24, 0x11	; 17
     d86:	0e 94 45 0d 	call	0x1a8a	; 0x1a8a <add_char_to_send_buf>
     d8a:	cf 91       	pop	r28
     d8c:	ff 90       	pop	r15
     d8e:	ef 90       	pop	r14
     d90:	df 90       	pop	r13
     d92:	cf 90       	pop	r12
     d94:	0c 94 3a 0c 	jmp	0x1874	; 0x1874 <do_ps2device_work>
     d98:	cf 91       	pop	r28
     d9a:	ff 90       	pop	r15
     d9c:	ef 90       	pop	r14
     d9e:	df 90       	pop	r13
     da0:	cf 90       	pop	r12
     da2:	08 95       	ret

00000da4 <_get_char_from_log_buf.part.0>:
     da4:	e0 91 dd 01 	lds	r30, 0x01DD	; 0x8001dd <_log_buf_head>
     da8:	f0 e0       	ldi	r31, 0x00	; 0
     daa:	e2 52       	subi	r30, 0x22	; 34
     dac:	fe 4f       	sbci	r31, 0xFE	; 254
     dae:	80 81       	ld	r24, Z
     db0:	90 91 dd 01 	lds	r25, 0x01DD	; 0x8001dd <_log_buf_head>
     db4:	9f 5f       	subi	r25, 0xFF	; 255
     db6:	90 93 dd 01 	sts	0x01DD, r25	; 0x8001dd <_log_buf_head>
     dba:	90 91 dc 01 	lds	r25, 0x01DC	; 0x8001dc <_log_buf_len>
     dbe:	91 50       	subi	r25, 0x01	; 1
     dc0:	90 93 dc 01 	sts	0x01DC, r25	; 0x8001dc <_log_buf_len>
     dc4:	90 91 dd 01 	lds	r25, 0x01DD	; 0x8001dd <_log_buf_head>
     dc8:	08 95       	ret

00000dca <__vector_19>:
     dca:	1f 92       	push	r1
     dcc:	0f 92       	push	r0
     dce:	0f b6       	in	r0, 0x3f	; 63
     dd0:	0f 92       	push	r0
     dd2:	11 24       	eor	r1, r1
     dd4:	2f 93       	push	r18
     dd6:	3f 93       	push	r19
     dd8:	4f 93       	push	r20
     dda:	5f 93       	push	r21
     ddc:	6f 93       	push	r22
     dde:	7f 93       	push	r23
     de0:	8f 93       	push	r24
     de2:	9f 93       	push	r25
     de4:	af 93       	push	r26
     de6:	bf 93       	push	r27
     de8:	ef 93       	push	r30
     dea:	ff 93       	push	r31
     dec:	80 91 dc 01 	lds	r24, 0x01DC	; 0x8001dc <_log_buf_len>
     df0:	88 23       	and	r24, r24
     df2:	39 f0       	breq	.+14     	; 0xe02 <__vector_19+0x38>
     df4:	0e 94 d2 06 	call	0xda4	; 0xda4 <_get_char_from_log_buf.part.0>
     df8:	88 23       	and	r24, r24
     dfa:	19 f0       	breq	.+6      	; 0xe02 <__vector_19+0x38>
     dfc:	80 93 c6 00 	sts	0x00C6, r24	; 0x8000c6 <__TEXT_REGION_LENGTH__+0x7e00c6>
     e00:	05 c0       	rjmp	.+10     	; 0xe0c <__vector_19+0x42>
     e02:	80 91 c1 00 	lds	r24, 0x00C1	; 0x8000c1 <__TEXT_REGION_LENGTH__+0x7e00c1>
     e06:	8f 7d       	andi	r24, 0xDF	; 223
     e08:	80 93 c1 00 	sts	0x00C1, r24	; 0x8000c1 <__TEXT_REGION_LENGTH__+0x7e00c1>
     e0c:	ff 91       	pop	r31
     e0e:	ef 91       	pop	r30
     e10:	bf 91       	pop	r27
     e12:	af 91       	pop	r26
     e14:	9f 91       	pop	r25
     e16:	8f 91       	pop	r24
     e18:	7f 91       	pop	r23
     e1a:	6f 91       	pop	r22
     e1c:	5f 91       	pop	r21
     e1e:	4f 91       	pop	r20
     e20:	3f 91       	pop	r19
     e22:	2f 91       	pop	r18
     e24:	0f 90       	pop	r0
     e26:	0f be       	out	0x3f, r0	; 63
     e28:	0f 90       	pop	r0
     e2a:	1f 90       	pop	r1
     e2c:	18 95       	reti

00000e2e <debug_log>:
     e2e:	dc 01       	movw	r26, r24
     e30:	2d 91       	ld	r18, X+
     e32:	22 23       	and	r18, r18
     e34:	99 f0       	breq	.+38     	; 0xe5c <debug_log+0x2e>
     e36:	f8 94       	cli
     e38:	80 91 dc 01 	lds	r24, 0x01DC	; 0x8001dc <_log_buf_len>
     e3c:	e0 91 dd 01 	lds	r30, 0x01DD	; 0x8001dd <_log_buf_head>
     e40:	90 91 dc 01 	lds	r25, 0x01DC	; 0x8001dc <_log_buf_len>
     e44:	e9 0f       	add	r30, r25
     e46:	f0 e0       	ldi	r31, 0x00	; 0
     e48:	e2 52       	subi	r30, 0x22	; 34
     e4a:	fe 4f       	sbci	r31, 0xFE	; 254
     e4c:	20 83       	st	Z, r18
     e4e:	90 91 dc 01 	lds	r25, 0x01DC	; 0x8001dc <_log_buf_len>
     e52:	9f 5f       	subi	r25, 0xFF	; 255
     e54:	90 93 dc 01 	sts	0x01DC, r25	; 0x8001dc <_log_buf_len>
     e58:	78 94       	sei
     e5a:	ea cf       	rjmp	.-44     	; 0xe30 <debug_log+0x2>
     e5c:	80 91 c1 00 	lds	r24, 0x00C1	; 0x8000c1 <__TEXT_REGION_LENGTH__+0x7e00c1>
     e60:	85 fd       	sbrc	r24, 5
     e62:	11 c0       	rjmp	.+34     	; 0xe86 <debug_log+0x58>
     e64:	f8 94       	cli
     e66:	80 91 dc 01 	lds	r24, 0x01DC	; 0x8001dc <_log_buf_len>
     e6a:	88 23       	and	r24, r24
     e6c:	59 f0       	breq	.+22     	; 0xe84 <debug_log+0x56>
     e6e:	0e 94 d2 06 	call	0xda4	; 0xda4 <_get_char_from_log_buf.part.0>
     e72:	88 23       	and	r24, r24
     e74:	39 f0       	breq	.+14     	; 0xe84 <debug_log+0x56>
     e76:	90 91 c1 00 	lds	r25, 0x00C1	; 0x8000c1 <__TEXT_REGION_LENGTH__+0x7e00c1>
     e7a:	90 62       	ori	r25, 0x20	; 32
     e7c:	90 93 c1 00 	sts	0x00C1, r25	; 0x8000c1 <__TEXT_REGION_LENGTH__+0x7e00c1>
     e80:	80 93 c6 00 	sts	0x00C6, r24	; 0x8000c6 <__TEXT_REGION_LENGTH__+0x7e00c6>
     e84:	78 94       	sei
     e86:	08 95       	ret

00000e88 <init_debug_log>:
     e88:	82 e0       	ldi	r24, 0x02	; 2
     e8a:	80 93 c0 00 	sts	0x00C0, r24	; 0x8000c0 <__TEXT_REGION_LENGTH__+0x7e00c0>
     e8e:	88 e0       	ldi	r24, 0x08	; 8
     e90:	80 93 c4 00 	sts	0x00C4, r24	; 0x8000c4 <__TEXT_REGION_LENGTH__+0x7e00c4>
     e94:	80 93 c1 00 	sts	0x00C1, r24	; 0x8000c1 <__TEXT_REGION_LENGTH__+0x7e00c1>
     e98:	08 95       	ret

00000e9a <__vector_7>:
     e9a:	1f 92       	push	r1
     e9c:	0f 92       	push	r0
     e9e:	0f b6       	in	r0, 0x3f	; 63
     ea0:	0f 92       	push	r0
     ea2:	11 24       	eor	r1, r1
     ea4:	2f 93       	push	r18
     ea6:	3f 93       	push	r19
     ea8:	8f 93       	push	r24
     eaa:	9f 93       	push	r25
     eac:	ef 93       	push	r30
     eae:	ff 93       	push	r31
     eb0:	89 b1       	in	r24, 0x09	; 9
     eb2:	84 70       	andi	r24, 0x04	; 4
     eb4:	90 91 a9 04 	lds	r25, 0x04A9	; 0x8004a9 <irparams+0xcb>
     eb8:	94 36       	cpi	r25, 0x64	; 100
     eba:	18 f0       	brcs	.+6      	; 0xec2 <__vector_7+0x28>
     ebc:	93 e0       	ldi	r25, 0x03	; 3
     ebe:	90 93 de 03 	sts	0x03DE, r25	; 0x8003de <irparams>
     ec2:	90 91 de 03 	lds	r25, 0x03DE	; 0x8003de <irparams>
     ec6:	91 30       	cpi	r25, 0x01	; 1
     ec8:	11 f1       	breq	.+68     	; 0xf0e <__vector_7+0x74>
     eca:	38 f0       	brcs	.+14     	; 0xeda <__vector_7+0x40>
     ecc:	92 30       	cpi	r25, 0x02	; 2
     ece:	09 f4       	brne	.+2      	; 0xed2 <__vector_7+0x38>
     ed0:	49 c0       	rjmp	.+146    	; 0xf64 <__vector_7+0xca>
     ed2:	93 30       	cpi	r25, 0x03	; 3
     ed4:	09 f4       	brne	.+2      	; 0xed8 <__vector_7+0x3e>
     ed6:	7c c0       	rjmp	.+248    	; 0xfd0 <__vector_7+0x136>
     ed8:	8c c0       	rjmp	.+280    	; 0xff2 <__vector_7+0x158>
     eda:	20 91 df 03 	lds	r18, 0x03DF	; 0x8003df <irparams+0x1>
     ede:	30 91 e0 03 	lds	r19, 0x03E0	; 0x8003e0 <irparams+0x2>
     ee2:	29 3b       	cpi	r18, 0xB9	; 185
     ee4:	3b 40       	sbci	r19, 0x0B	; 11
     ee6:	50 f4       	brcc	.+20     	; 0xefc <__vector_7+0x62>
     ee8:	20 91 df 03 	lds	r18, 0x03DF	; 0x8003df <irparams+0x1>
     eec:	30 91 e0 03 	lds	r19, 0x03E0	; 0x8003e0 <irparams+0x2>
     ef0:	2f 5f       	subi	r18, 0xFF	; 255
     ef2:	3f 4f       	sbci	r19, 0xFF	; 255
     ef4:	30 93 e0 03 	sts	0x03E0, r19	; 0x8003e0 <irparams+0x2>
     ef8:	20 93 df 03 	sts	0x03DF, r18	; 0x8003df <irparams+0x1>
     efc:	81 11       	cpse	r24, r1
     efe:	7d c0       	rjmp	.+250    	; 0xffa <__vector_7+0x160>
     f00:	10 92 e0 03 	sts	0x03E0, r1	; 0x8003e0 <irparams+0x2>
     f04:	10 92 df 03 	sts	0x03DF, r1	; 0x8003df <irparams+0x1>
     f08:	10 92 a9 04 	sts	0x04A9, r1	; 0x8004a9 <irparams+0xcb>
     f0c:	42 c0       	rjmp	.+132    	; 0xf92 <__vector_7+0xf8>
     f0e:	88 23       	and	r24, r24
     f10:	b9 f0       	breq	.+46     	; 0xf40 <__vector_7+0xa6>
     f12:	e0 91 a9 04 	lds	r30, 0x04A9	; 0x8004a9 <irparams+0xcb>
     f16:	81 e0       	ldi	r24, 0x01	; 1
     f18:	8e 0f       	add	r24, r30
     f1a:	80 93 a9 04 	sts	0x04A9, r24	; 0x8004a9 <irparams+0xcb>
     f1e:	f0 e0       	ldi	r31, 0x00	; 0
     f20:	80 91 df 03 	lds	r24, 0x03DF	; 0x8003df <irparams+0x1>
     f24:	90 91 e0 03 	lds	r25, 0x03E0	; 0x8003e0 <irparams+0x2>
     f28:	ee 0f       	add	r30, r30
     f2a:	ff 1f       	adc	r31, r31
     f2c:	e2 52       	subi	r30, 0x22	; 34
     f2e:	fc 4f       	sbci	r31, 0xFC	; 252
     f30:	94 83       	std	Z+4, r25	; 0x04
     f32:	83 83       	std	Z+3, r24	; 0x03
     f34:	10 92 e0 03 	sts	0x03E0, r1	; 0x8003e0 <irparams+0x2>
     f38:	10 92 df 03 	sts	0x03DF, r1	; 0x8003df <irparams+0x1>
     f3c:	82 e0       	ldi	r24, 0x02	; 2
     f3e:	45 c0       	rjmp	.+138    	; 0xfca <__vector_7+0x130>
     f40:	80 91 df 03 	lds	r24, 0x03DF	; 0x8003df <irparams+0x1>
     f44:	90 91 e0 03 	lds	r25, 0x03E0	; 0x8003e0 <irparams+0x2>
     f48:	89 3b       	cpi	r24, 0xB9	; 185
     f4a:	9b 40       	sbci	r25, 0x0B	; 11
     f4c:	08 f0       	brcs	.+2      	; 0xf50 <__vector_7+0xb6>
     f4e:	53 c0       	rjmp	.+166    	; 0xff6 <__vector_7+0x15c>
     f50:	80 91 df 03 	lds	r24, 0x03DF	; 0x8003df <irparams+0x1>
     f54:	90 91 e0 03 	lds	r25, 0x03E0	; 0x8003e0 <irparams+0x2>
     f58:	01 96       	adiw	r24, 0x01	; 1
     f5a:	90 93 e0 03 	sts	0x03E0, r25	; 0x8003e0 <irparams+0x2>
     f5e:	80 93 df 03 	sts	0x03DF, r24	; 0x8003df <irparams+0x1>
     f62:	49 c0       	rjmp	.+146    	; 0xff6 <__vector_7+0x15c>
     f64:	81 11       	cpse	r24, r1
     f66:	19 c0       	rjmp	.+50     	; 0xf9a <__vector_7+0x100>
     f68:	e0 91 a9 04 	lds	r30, 0x04A9	; 0x8004a9 <irparams+0xcb>
     f6c:	81 e0       	ldi	r24, 0x01	; 1
     f6e:	8e 0f       	add	r24, r30
     f70:	80 93 a9 04 	sts	0x04A9, r24	; 0x8004a9 <irparams+0xcb>
     f74:	f0 e0       	ldi	r31, 0x00	; 0
     f76:	80 91 df 03 	lds	r24, 0x03DF	; 0x8003df <irparams+0x1>
     f7a:	90 91 e0 03 	lds	r25, 0x03E0	; 0x8003e0 <irparams+0x2>
     f7e:	ee 0f       	add	r30, r30
     f80:	ff 1f       	adc	r31, r31
     f82:	e2 52       	subi	r30, 0x22	; 34
     f84:	fc 4f       	sbci	r31, 0xFC	; 252
     f86:	94 83       	std	Z+4, r25	; 0x04
     f88:	83 83       	std	Z+3, r24	; 0x03
     f8a:	10 92 e0 03 	sts	0x03E0, r1	; 0x8003e0 <irparams+0x2>
     f8e:	10 92 df 03 	sts	0x03DF, r1	; 0x8003df <irparams+0x1>
     f92:	81 e0       	ldi	r24, 0x01	; 1
     f94:	80 93 de 03 	sts	0x03DE, r24	; 0x8003de <irparams>
     f98:	2e c0       	rjmp	.+92     	; 0xff6 <__vector_7+0x15c>
     f9a:	80 91 df 03 	lds	r24, 0x03DF	; 0x8003df <irparams+0x1>
     f9e:	90 91 e0 03 	lds	r25, 0x03E0	; 0x8003e0 <irparams+0x2>
     fa2:	89 3b       	cpi	r24, 0xB9	; 185
     fa4:	9b 40       	sbci	r25, 0x0B	; 11
     fa6:	48 f4       	brcc	.+18     	; 0xfba <__vector_7+0x120>
     fa8:	80 91 df 03 	lds	r24, 0x03DF	; 0x8003df <irparams+0x1>
     fac:	90 91 e0 03 	lds	r25, 0x03E0	; 0x8003e0 <irparams+0x2>
     fb0:	01 96       	adiw	r24, 0x01	; 1
     fb2:	90 93 e0 03 	sts	0x03E0, r25	; 0x8003e0 <irparams+0x2>
     fb6:	80 93 df 03 	sts	0x03DF, r24	; 0x8003df <irparams+0x1>
     fba:	80 91 df 03 	lds	r24, 0x03DF	; 0x8003df <irparams+0x1>
     fbe:	90 91 e0 03 	lds	r25, 0x03E0	; 0x8003e0 <irparams+0x2>
     fc2:	85 36       	cpi	r24, 0x65	; 101
     fc4:	91 05       	cpc	r25, r1
     fc6:	c8 f0       	brcs	.+50     	; 0xffa <__vector_7+0x160>
     fc8:	83 e0       	ldi	r24, 0x03	; 3
     fca:	80 93 de 03 	sts	0x03DE, r24	; 0x8003de <irparams>
     fce:	15 c0       	rjmp	.+42     	; 0xffa <__vector_7+0x160>
     fd0:	20 91 df 03 	lds	r18, 0x03DF	; 0x8003df <irparams+0x1>
     fd4:	30 91 e0 03 	lds	r19, 0x03E0	; 0x8003e0 <irparams+0x2>
     fd8:	29 3b       	cpi	r18, 0xB9	; 185
     fda:	3b 40       	sbci	r19, 0x0B	; 11
     fdc:	50 f4       	brcc	.+20     	; 0xff2 <__vector_7+0x158>
     fde:	20 91 df 03 	lds	r18, 0x03DF	; 0x8003df <irparams+0x1>
     fe2:	30 91 e0 03 	lds	r19, 0x03E0	; 0x8003e0 <irparams+0x2>
     fe6:	2f 5f       	subi	r18, 0xFF	; 255
     fe8:	3f 4f       	sbci	r19, 0xFF	; 255
     fea:	30 93 e0 03 	sts	0x03E0, r19	; 0x8003e0 <irparams+0x2>
     fee:	20 93 df 03 	sts	0x03DF, r18	; 0x8003df <irparams+0x1>
     ff2:	81 11       	cpse	r24, r1
     ff4:	02 c0       	rjmp	.+4      	; 0xffa <__vector_7+0x160>
     ff6:	45 9a       	sbi	0x08, 5	; 8
     ff8:	01 c0       	rjmp	.+2      	; 0xffc <__vector_7+0x162>
     ffa:	45 98       	cbi	0x08, 5	; 8
     ffc:	ff 91       	pop	r31
     ffe:	ef 91       	pop	r30
    1000:	9f 91       	pop	r25
    1002:	8f 91       	pop	r24
    1004:	3f 91       	pop	r19
    1006:	2f 91       	pop	r18
    1008:	0f 90       	pop	r0
    100a:	0f be       	out	0x3f, r0	; 63
    100c:	0f 90       	pop	r0
    100e:	1f 90       	pop	r1
    1010:	18 95       	reti

00001012 <compare>:
    1012:	9c 01       	movw	r18, r24
    1014:	24 50       	subi	r18, 0x04	; 4
    1016:	31 09       	sbc	r19, r1
    1018:	62 17       	cp	r22, r18
    101a:	73 07       	cpc	r23, r19
    101c:	40 f0       	brcs	.+16     	; 0x102e <compare+0x1c>
    101e:	64 50       	subi	r22, 0x04	; 4
    1020:	71 09       	sbc	r23, r1
    1022:	86 17       	cp	r24, r22
    1024:	97 07       	cpc	r25, r23
    1026:	30 f0       	brcs	.+12     	; 0x1034 <compare+0x22>
    1028:	81 e0       	ldi	r24, 0x01	; 1
    102a:	90 e0       	ldi	r25, 0x00	; 0
    102c:	08 95       	ret
    102e:	80 e0       	ldi	r24, 0x00	; 0
    1030:	90 e0       	ldi	r25, 0x00	; 0
    1032:	08 95       	ret
    1034:	82 e0       	ldi	r24, 0x02	; 2
    1036:	90 e0       	ldi	r25, 0x00	; 0
    1038:	08 95       	ret

0000103a <decodeHashIRRecv>:
    103a:	af 92       	push	r10
    103c:	bf 92       	push	r11
    103e:	cf 92       	push	r12
    1040:	df 92       	push	r13
    1042:	ef 92       	push	r14
    1044:	ff 92       	push	r15
    1046:	0f 93       	push	r16
    1048:	1f 93       	push	r17
    104a:	cf 93       	push	r28
    104c:	df 93       	push	r29
    104e:	ec 01       	movw	r28, r24
    1050:	90 91 de 03 	lds	r25, 0x03DE	; 0x8003de <irparams>
    1054:	99 23       	and	r25, r25
    1056:	b9 f0       	breq	.+46     	; 0x1086 <decodeHashIRRecv+0x4c>
    1058:	93 30       	cpi	r25, 0x03	; 3
    105a:	08 f4       	brcc	.+2      	; 0x105e <decodeHashIRRecv+0x24>
    105c:	63 c0       	rjmp	.+198    	; 0x1124 <decodeHashIRRecv+0xea>
    105e:	81 ee       	ldi	r24, 0xE1	; 225
    1060:	93 e0       	ldi	r25, 0x03	; 3
    1062:	98 87       	std	Y+8, r25	; 0x08
    1064:	8f 83       	std	Y+7, r24	; 0x07
    1066:	80 91 a9 04 	lds	r24, 0x04A9	; 0x8004a9 <irparams+0xcb>
    106a:	89 87       	std	Y+9, r24	; 0x09
    106c:	a1 2c       	mov	r10, r1
    106e:	b1 2c       	mov	r11, r1
    1070:	02 e0       	ldi	r16, 0x02	; 2
    1072:	10 e0       	ldi	r17, 0x00	; 0
    1074:	35 ec       	ldi	r19, 0xC5	; 197
    1076:	c3 2e       	mov	r12, r19
    1078:	3d e9       	ldi	r19, 0x9D	; 157
    107a:	d3 2e       	mov	r13, r19
    107c:	3c e1       	ldi	r19, 0x1C	; 28
    107e:	e3 2e       	mov	r14, r19
    1080:	31 e8       	ldi	r19, 0x81	; 129
    1082:	f3 2e       	mov	r15, r19
    1084:	10 c0       	rjmp	.+32     	; 0x10a6 <decodeHashIRRecv+0x6c>
    1086:	80 91 00 01 	lds	r24, 0x0100	; 0x800100 <__data_start>
    108a:	81 11       	cpse	r24, r1
    108c:	4d c0       	rjmp	.+154    	; 0x1128 <decodeHashIRRecv+0xee>
    108e:	80 91 df 03 	lds	r24, 0x03DF	; 0x8003df <irparams+0x1>
    1092:	90 91 e0 03 	lds	r25, 0x03E0	; 0x8003e0 <irparams+0x2>
    1096:	88 3b       	cpi	r24, 0xB8	; 184
    1098:	9b 40       	sbci	r25, 0x0B	; 11
    109a:	08 f4       	brcc	.+2      	; 0x109e <decodeHashIRRecv+0x64>
    109c:	45 c0       	rjmp	.+138    	; 0x1128 <decodeHashIRRecv+0xee>
    109e:	81 e0       	ldi	r24, 0x01	; 1
    10a0:	80 93 00 01 	sts	0x0100, r24	; 0x800100 <__data_start>
    10a4:	42 c0       	rjmp	.+132    	; 0x112a <decodeHashIRRecv+0xf0>
    10a6:	89 85       	ldd	r24, Y+9	; 0x09
    10a8:	90 e0       	ldi	r25, 0x00	; 0
    10aa:	08 17       	cp	r16, r24
    10ac:	19 07       	cpc	r17, r25
    10ae:	44 f5       	brge	.+80     	; 0x1100 <decodeHashIRRecv+0xc6>
    10b0:	ef 81       	ldd	r30, Y+7	; 0x07
    10b2:	f8 85       	ldd	r31, Y+8	; 0x08
    10b4:	c8 01       	movw	r24, r16
    10b6:	88 0f       	add	r24, r24
    10b8:	99 1f       	adc	r25, r25
    10ba:	e8 0f       	add	r30, r24
    10bc:	f9 1f       	adc	r31, r25
    10be:	60 81       	ld	r22, Z
    10c0:	71 81       	ldd	r23, Z+1	; 0x01
    10c2:	ef 81       	ldd	r30, Y+7	; 0x07
    10c4:	f8 85       	ldd	r31, Y+8	; 0x08
    10c6:	ea 0d       	add	r30, r10
    10c8:	fb 1d       	adc	r31, r11
    10ca:	80 81       	ld	r24, Z
    10cc:	91 81       	ldd	r25, Z+1	; 0x01
    10ce:	0e 94 09 08 	call	0x1012	; 0x1012 <compare>
    10d2:	fc 01       	movw	r30, r24
    10d4:	a7 01       	movw	r20, r14
    10d6:	96 01       	movw	r18, r12
    10d8:	63 e9       	ldi	r22, 0x93	; 147
    10da:	71 e0       	ldi	r23, 0x01	; 1
    10dc:	80 e0       	ldi	r24, 0x00	; 0
    10de:	91 e0       	ldi	r25, 0x01	; 1
    10e0:	0e 94 61 0d 	call	0x1ac2	; 0x1ac2 <__mulsi3>
    10e4:	6f 01       	movw	r12, r30
    10e6:	ff 0f       	add	r31, r31
    10e8:	ee 08       	sbc	r14, r14
    10ea:	ff 08       	sbc	r15, r15
    10ec:	c6 26       	eor	r12, r22
    10ee:	d7 26       	eor	r13, r23
    10f0:	e8 26       	eor	r14, r24
    10f2:	f9 26       	eor	r15, r25
    10f4:	0f 5f       	subi	r16, 0xFF	; 255
    10f6:	1f 4f       	sbci	r17, 0xFF	; 255
    10f8:	82 e0       	ldi	r24, 0x02	; 2
    10fa:	a8 0e       	add	r10, r24
    10fc:	b1 1c       	adc	r11, r1
    10fe:	d3 cf       	rjmp	.-90     	; 0x10a6 <decodeHashIRRecv+0x6c>
    1100:	ca 82       	std	Y+2, r12	; 0x02
    1102:	db 82       	std	Y+3, r13	; 0x03
    1104:	ec 82       	std	Y+4, r14	; 0x04
    1106:	fd 82       	std	Y+5, r15	; 0x05
    1108:	80 e2       	ldi	r24, 0x20	; 32
    110a:	8e 83       	std	Y+6, r24	; 0x06
    110c:	8f ef       	ldi	r24, 0xFF	; 255
    110e:	9f ef       	ldi	r25, 0xFF	; 255
    1110:	99 83       	std	Y+1, r25	; 0x01
    1112:	88 83       	st	Y, r24
    1114:	10 92 de 03 	sts	0x03DE, r1	; 0x8003de <irparams>
    1118:	10 92 00 01 	sts	0x0100, r1	; 0x800100 <__data_start>
    111c:	10 92 a9 04 	sts	0x04A9, r1	; 0x8004a9 <irparams+0xcb>
    1120:	80 e0       	ldi	r24, 0x00	; 0
    1122:	03 c0       	rjmp	.+6      	; 0x112a <decodeHashIRRecv+0xf0>
    1124:	82 e0       	ldi	r24, 0x02	; 2
    1126:	01 c0       	rjmp	.+2      	; 0x112a <decodeHashIRRecv+0xf0>
    1128:	83 e0       	ldi	r24, 0x03	; 3
    112a:	df 91       	pop	r29
    112c:	cf 91       	pop	r28
    112e:	1f 91       	pop	r17
    1130:	0f 91       	pop	r16
    1132:	ff 90       	pop	r15
    1134:	ef 90       	pop	r14
    1136:	df 90       	pop	r13
    1138:	cf 90       	pop	r12
    113a:	bf 90       	pop	r11
    113c:	af 90       	pop	r10
    113e:	08 95       	ret

00001140 <enableIRRecv>:
    1140:	f8 94       	cli
    1142:	82 e0       	ldi	r24, 0x02	; 2
    1144:	80 93 b0 00 	sts	0x00B0, r24	; 0x8000b0 <__TEXT_REGION_LENGTH__+0x7e00b0>
    1148:	80 93 b1 00 	sts	0x00B1, r24	; 0x8000b1 <__TEXT_REGION_LENGTH__+0x7e00b1>
    114c:	92 e3       	ldi	r25, 0x32	; 50
    114e:	90 93 b3 00 	sts	0x00B3, r25	; 0x8000b3 <__TEXT_REGION_LENGTH__+0x7e00b3>
    1152:	10 92 b2 00 	sts	0x00B2, r1	; 0x8000b2 <__TEXT_REGION_LENGTH__+0x7e00b2>
    1156:	17 ba       	out	0x17, r1	; 23
    1158:	80 93 70 00 	sts	0x0070, r24	; 0x800070 <__TEXT_REGION_LENGTH__+0x7e0070>
    115c:	78 94       	sei
    115e:	10 92 de 03 	sts	0x03DE, r1	; 0x8003de <irparams>
    1162:	10 92 a9 04 	sts	0x04A9, r1	; 0x8004a9 <irparams+0xcb>
    1166:	52 98       	cbi	0x0a, 2	; 10
    1168:	3d 9a       	sbi	0x07, 5	; 7
    116a:	45 9a       	sbi	0x08, 5	; 8
    116c:	08 95       	ret

0000116e <_enable_timer0>:
    116e:	16 bc       	out	0x26, r1	; 38
    1170:	85 b5       	in	r24, 0x25	; 37
    1172:	82 60       	ori	r24, 0x02	; 2
    1174:	85 bd       	out	0x25, r24	; 37
    1176:	85 b5       	in	r24, 0x25	; 37
    1178:	8a 7f       	andi	r24, 0xFA	; 250
    117a:	85 bd       	out	0x25, r24	; 37
    117c:	84 b5       	in	r24, 0x24	; 36
    117e:	82 60       	ori	r24, 0x02	; 2
    1180:	84 bd       	out	0x24, r24	; 36
    1182:	a9 9a       	sbi	0x15, 1	; 21
    1184:	ee e6       	ldi	r30, 0x6E	; 110
    1186:	f0 e0       	ldi	r31, 0x00	; 0
    1188:	80 81       	ld	r24, Z
    118a:	82 60       	ori	r24, 0x02	; 2
    118c:	80 83       	st	Z, r24
    118e:	88 e2       	ldi	r24, 0x28	; 40
    1190:	87 bd       	out	0x27, r24	; 39
    1192:	08 95       	ret

00001194 <_disable_timer0>:
    1194:	85 b5       	in	r24, 0x25	; 37
    1196:	88 7f       	andi	r24, 0xF8	; 248
    1198:	85 bd       	out	0x25, r24	; 37
    119a:	ee e6       	ldi	r30, 0x6E	; 110
    119c:	f0 e0       	ldi	r31, 0x00	; 0
    119e:	80 81       	ld	r24, Z
    11a0:	8d 7f       	andi	r24, 0xFD	; 253
    11a2:	80 83       	st	Z, r24
    11a4:	08 95       	ret

000011a6 <_conf_pins_input>:
    11a6:	a8 e6       	ldi	r26, 0x68	; 104
    11a8:	b0 e0       	ldi	r27, 0x00	; 0
    11aa:	8c 91       	ld	r24, X
    11ac:	8e 7f       	andi	r24, 0xFE	; 254
    11ae:	8c 93       	st	X, r24
    11b0:	eb e6       	ldi	r30, 0x6B	; 107
    11b2:	f0 e0       	ldi	r31, 0x00	; 0
    11b4:	30 81       	ld	r19, Z
    11b6:	81 e0       	ldi	r24, 0x01	; 1
    11b8:	90 e0       	ldi	r25, 0x00	; 0
    11ba:	ac 01       	movw	r20, r24
    11bc:	00 90 ac 04 	lds	r0, 0x04AC	; 0x8004ac <_data_pin_port_b>
    11c0:	02 c0       	rjmp	.+4      	; 0x11c6 <_conf_pins_input+0x20>
    11c2:	44 0f       	add	r20, r20
    11c4:	55 1f       	adc	r21, r21
    11c6:	0a 94       	dec	r0
    11c8:	e2 f7       	brpl	.-8      	; 0x11c2 <_conf_pins_input+0x1c>
    11ca:	24 2f       	mov	r18, r20
    11cc:	20 95       	com	r18
    11ce:	23 23       	and	r18, r19
    11d0:	20 83       	st	Z, r18
    11d2:	30 81       	ld	r19, Z
    11d4:	ac 01       	movw	r20, r24
    11d6:	00 90 ad 04 	lds	r0, 0x04AD	; 0x8004ad <_clock_pin_port_b>
    11da:	02 c0       	rjmp	.+4      	; 0x11e0 <_conf_pins_input+0x3a>
    11dc:	44 0f       	add	r20, r20
    11de:	55 1f       	adc	r21, r21
    11e0:	0a 94       	dec	r0
    11e2:	e2 f7       	brpl	.-8      	; 0x11dc <_conf_pins_input+0x36>
    11e4:	24 2f       	mov	r18, r20
    11e6:	20 95       	com	r18
    11e8:	23 23       	and	r18, r19
    11ea:	20 83       	st	Z, r18
    11ec:	44 b1       	in	r20, 0x04	; 4
    11ee:	bc 01       	movw	r22, r24
    11f0:	00 90 ad 04 	lds	r0, 0x04AD	; 0x8004ad <_clock_pin_port_b>
    11f4:	02 c0       	rjmp	.+4      	; 0x11fa <_conf_pins_input+0x54>
    11f6:	66 0f       	add	r22, r22
    11f8:	77 1f       	adc	r23, r23
    11fa:	0a 94       	dec	r0
    11fc:	e2 f7       	brpl	.-8      	; 0x11f6 <_conf_pins_input+0x50>
    11fe:	9c 01       	movw	r18, r24
    1200:	00 90 ac 04 	lds	r0, 0x04AC	; 0x8004ac <_data_pin_port_b>
    1204:	02 c0       	rjmp	.+4      	; 0x120a <_conf_pins_input+0x64>
    1206:	22 0f       	add	r18, r18
    1208:	33 1f       	adc	r19, r19
    120a:	0a 94       	dec	r0
    120c:	e2 f7       	brpl	.-8      	; 0x1206 <_conf_pins_input+0x60>
    120e:	26 2b       	or	r18, r22
    1210:	20 95       	com	r18
    1212:	24 23       	and	r18, r20
    1214:	24 b9       	out	0x04, r18	; 4
    1216:	35 b1       	in	r19, 0x05	; 5
    1218:	bc 01       	movw	r22, r24
    121a:	00 90 ad 04 	lds	r0, 0x04AD	; 0x8004ad <_clock_pin_port_b>
    121e:	02 c0       	rjmp	.+4      	; 0x1224 <_conf_pins_input+0x7e>
    1220:	66 0f       	add	r22, r22
    1222:	77 1f       	adc	r23, r23
    1224:	0a 94       	dec	r0
    1226:	e2 f7       	brpl	.-8      	; 0x1220 <_conf_pins_input+0x7a>
    1228:	ac 01       	movw	r20, r24
    122a:	00 90 ac 04 	lds	r0, 0x04AC	; 0x8004ac <_data_pin_port_b>
    122e:	02 c0       	rjmp	.+4      	; 0x1234 <_conf_pins_input+0x8e>
    1230:	44 0f       	add	r20, r20
    1232:	55 1f       	adc	r21, r21
    1234:	0a 94       	dec	r0
    1236:	e2 f7       	brpl	.-8      	; 0x1230 <_conf_pins_input+0x8a>
    1238:	26 2f       	mov	r18, r22
    123a:	24 2b       	or	r18, r20
    123c:	23 2b       	or	r18, r19
    123e:	25 b9       	out	0x05, r18	; 5
    1240:	00 00       	nop
    1242:	40 81       	ld	r20, Z
    1244:	9c 01       	movw	r18, r24
    1246:	00 90 ad 04 	lds	r0, 0x04AD	; 0x8004ad <_clock_pin_port_b>
    124a:	02 c0       	rjmp	.+4      	; 0x1250 <_conf_pins_input+0xaa>
    124c:	22 0f       	add	r18, r18
    124e:	33 1f       	adc	r19, r19
    1250:	0a 94       	dec	r0
    1252:	e2 f7       	brpl	.-8      	; 0x124c <_conf_pins_input+0xa6>
    1254:	24 2b       	or	r18, r20
    1256:	20 83       	st	Z, r18
    1258:	20 81       	ld	r18, Z
    125a:	00 90 ac 04 	lds	r0, 0x04AC	; 0x8004ac <_data_pin_port_b>
    125e:	02 c0       	rjmp	.+4      	; 0x1264 <_conf_pins_input+0xbe>
    1260:	88 0f       	add	r24, r24
    1262:	99 1f       	adc	r25, r25
    1264:	0a 94       	dec	r0
    1266:	e2 f7       	brpl	.-8      	; 0x1260 <_conf_pins_input+0xba>
    1268:	82 2b       	or	r24, r18
    126a:	80 83       	st	Z, r24
    126c:	8c 91       	ld	r24, X
    126e:	81 60       	ori	r24, 0x01	; 1
    1270:	8c 93       	st	X, r24
    1272:	08 95       	ret

00001274 <_conf_clock_input_high>:
    1274:	81 e0       	ldi	r24, 0x01	; 1
    1276:	80 93 01 01 	sts	0x0101, r24	; 0x800101 <_clock_state>
    127a:	34 b1       	in	r19, 0x04	; 4
    127c:	81 e0       	ldi	r24, 0x01	; 1
    127e:	90 e0       	ldi	r25, 0x00	; 0
    1280:	ac 01       	movw	r20, r24
    1282:	00 90 ad 04 	lds	r0, 0x04AD	; 0x8004ad <_clock_pin_port_b>
    1286:	02 c0       	rjmp	.+4      	; 0x128c <_conf_clock_input_high+0x18>
    1288:	44 0f       	add	r20, r20
    128a:	55 1f       	adc	r21, r21
    128c:	0a 94       	dec	r0
    128e:	e2 f7       	brpl	.-8      	; 0x1288 <_conf_clock_input_high+0x14>
    1290:	24 2f       	mov	r18, r20
    1292:	20 95       	com	r18
    1294:	23 23       	and	r18, r19
    1296:	24 b9       	out	0x04, r18	; 4
    1298:	25 b1       	in	r18, 0x05	; 5
    129a:	00 90 ad 04 	lds	r0, 0x04AD	; 0x8004ad <_clock_pin_port_b>
    129e:	02 c0       	rjmp	.+4      	; 0x12a4 <_conf_clock_input_high+0x30>
    12a0:	88 0f       	add	r24, r24
    12a2:	99 1f       	adc	r25, r25
    12a4:	0a 94       	dec	r0
    12a6:	e2 f7       	brpl	.-8      	; 0x12a0 <_conf_clock_input_high+0x2c>
    12a8:	82 2b       	or	r24, r18
    12aa:	85 b9       	out	0x05, r24	; 5
    12ac:	00 00       	nop
    12ae:	08 95       	ret

000012b0 <_conf_clock_out_low>:
    12b0:	10 92 01 01 	sts	0x0101, r1	; 0x800101 <_clock_state>
    12b4:	44 b1       	in	r20, 0x04	; 4
    12b6:	81 e0       	ldi	r24, 0x01	; 1
    12b8:	90 e0       	ldi	r25, 0x00	; 0
    12ba:	9c 01       	movw	r18, r24
    12bc:	00 90 ad 04 	lds	r0, 0x04AD	; 0x8004ad <_clock_pin_port_b>
    12c0:	02 c0       	rjmp	.+4      	; 0x12c6 <_conf_clock_out_low+0x16>
    12c2:	22 0f       	add	r18, r18
    12c4:	33 1f       	adc	r19, r19
    12c6:	0a 94       	dec	r0
    12c8:	e2 f7       	brpl	.-8      	; 0x12c2 <_conf_clock_out_low+0x12>
    12ca:	24 2b       	or	r18, r20
    12cc:	24 b9       	out	0x04, r18	; 4
    12ce:	25 b1       	in	r18, 0x05	; 5
    12d0:	00 90 ad 04 	lds	r0, 0x04AD	; 0x8004ad <_clock_pin_port_b>
    12d4:	02 c0       	rjmp	.+4      	; 0x12da <_conf_clock_out_low+0x2a>
    12d6:	88 0f       	add	r24, r24
    12d8:	99 1f       	adc	r25, r25
    12da:	0a 94       	dec	r0
    12dc:	e2 f7       	brpl	.-8      	; 0x12d6 <_conf_clock_out_low+0x26>
    12de:	80 95       	com	r24
    12e0:	82 23       	and	r24, r18
    12e2:	85 b9       	out	0x05, r24	; 5
    12e4:	08 95       	ret

000012e6 <_send_char_to_host>:
    12e6:	98 2f       	mov	r25, r24
    12e8:	88 23       	and	r24, r24
    12ea:	09 f4       	brne	.+2      	; 0x12ee <_send_char_to_host+0x8>
    12ec:	91 c0       	rjmp	.+290    	; 0x1410 <_send_char_to_host+0x12a>
    12ee:	80 91 02 01 	lds	r24, 0x0102	; 0x800102 <_ps2dev_enabled>
    12f2:	88 23       	and	r24, r24
    12f4:	09 f4       	brne	.+2      	; 0x12f8 <_send_char_to_host+0x12>
    12f6:	8d c0       	rjmp	.+282    	; 0x1412 <_send_char_to_host+0x12c>
    12f8:	80 91 b0 04 	lds	r24, 0x04B0	; 0x8004b0 <_trans_in_progress>
    12fc:	81 11       	cpse	r24, r1
    12fe:	fc cf       	rjmp	.-8      	; 0x12f8 <_send_char_to_host+0x12>
    1300:	80 91 aa 04 	lds	r24, 0x04AA	; 0x8004aa <_recv_in_progress>
    1304:	81 11       	cpse	r24, r1
    1306:	f8 cf       	rjmp	.-16     	; 0x12f8 <_send_char_to_host+0x12>
    1308:	81 e0       	ldi	r24, 0x01	; 1
    130a:	80 93 b0 04 	sts	0x04B0, r24	; 0x8004b0 <_trans_in_progress>
    130e:	90 93 b2 04 	sts	0x04B2, r25	; 0x8004b2 <_char_to_send>
    1312:	89 2f       	mov	r24, r25
    1314:	86 95       	lsr	r24
    1316:	98 27       	eor	r25, r24
    1318:	89 2f       	mov	r24, r25
    131a:	86 95       	lsr	r24
    131c:	86 95       	lsr	r24
    131e:	98 27       	eor	r25, r24
    1320:	29 2f       	mov	r18, r25
    1322:	22 95       	swap	r18
    1324:	2f 70       	andi	r18, 0x0F	; 15
    1326:	92 27       	eor	r25, r18
    1328:	91 70       	andi	r25, 0x01	; 1
    132a:	90 93 b1 04 	sts	0x04B1, r25	; 0x8004b1 <_char_to_send_parity>
    132e:	21 e0       	ldi	r18, 0x01	; 1
    1330:	30 e0       	ldi	r19, 0x00	; 0
    1332:	00 90 ad 04 	lds	r0, 0x04AD	; 0x8004ad <_clock_pin_port_b>
    1336:	02 c0       	rjmp	.+4      	; 0x133c <_send_char_to_host+0x56>
    1338:	22 0f       	add	r18, r18
    133a:	33 1f       	adc	r19, r19
    133c:	0a 94       	dec	r0
    133e:	e2 f7       	brpl	.-8      	; 0x1338 <_send_char_to_host+0x52>
    1340:	83 b1       	in	r24, 0x03	; 3
    1342:	90 e0       	ldi	r25, 0x00	; 0
    1344:	82 23       	and	r24, r18
    1346:	93 23       	and	r25, r19
    1348:	89 2b       	or	r24, r25
    134a:	d1 f3       	breq	.-12     	; 0x1340 <_send_char_to_host+0x5a>
    134c:	80 91 68 00 	lds	r24, 0x0068	; 0x800068 <__TEXT_REGION_LENGTH__+0x7e0068>
    1350:	8e 7f       	andi	r24, 0xFE	; 254
    1352:	80 93 68 00 	sts	0x0068, r24	; 0x800068 <__TEXT_REGION_LENGTH__+0x7e0068>
    1356:	30 91 6b 00 	lds	r19, 0x006B	; 0x80006b <__TEXT_REGION_LENGTH__+0x7e006b>
    135a:	81 e0       	ldi	r24, 0x01	; 1
    135c:	90 e0       	ldi	r25, 0x00	; 0
    135e:	ac 01       	movw	r20, r24
    1360:	00 90 ac 04 	lds	r0, 0x04AC	; 0x8004ac <_data_pin_port_b>
    1364:	02 c0       	rjmp	.+4      	; 0x136a <_send_char_to_host+0x84>
    1366:	44 0f       	add	r20, r20
    1368:	55 1f       	adc	r21, r21
    136a:	0a 94       	dec	r0
    136c:	e2 f7       	brpl	.-8      	; 0x1366 <_send_char_to_host+0x80>
    136e:	24 2f       	mov	r18, r20
    1370:	20 95       	com	r18
    1372:	23 23       	and	r18, r19
    1374:	20 93 6b 00 	sts	0x006B, r18	; 0x80006b <__TEXT_REGION_LENGTH__+0x7e006b>
    1378:	30 91 6b 00 	lds	r19, 0x006B	; 0x80006b <__TEXT_REGION_LENGTH__+0x7e006b>
    137c:	ac 01       	movw	r20, r24
    137e:	00 90 ad 04 	lds	r0, 0x04AD	; 0x8004ad <_clock_pin_port_b>
    1382:	02 c0       	rjmp	.+4      	; 0x1388 <_send_char_to_host+0xa2>
    1384:	44 0f       	add	r20, r20
    1386:	55 1f       	adc	r21, r21
    1388:	0a 94       	dec	r0
    138a:	e2 f7       	brpl	.-8      	; 0x1384 <_send_char_to_host+0x9e>
    138c:	24 2f       	mov	r18, r20
    138e:	20 95       	com	r18
    1390:	23 23       	and	r18, r19
    1392:	20 93 6b 00 	sts	0x006B, r18	; 0x80006b <__TEXT_REGION_LENGTH__+0x7e006b>
    1396:	34 b1       	in	r19, 0x04	; 4
    1398:	bc 01       	movw	r22, r24
    139a:	00 90 ad 04 	lds	r0, 0x04AD	; 0x8004ad <_clock_pin_port_b>
    139e:	02 c0       	rjmp	.+4      	; 0x13a4 <_send_char_to_host+0xbe>
    13a0:	66 0f       	add	r22, r22
    13a2:	77 1f       	adc	r23, r23
    13a4:	0a 94       	dec	r0
    13a6:	e2 f7       	brpl	.-8      	; 0x13a0 <_send_char_to_host+0xba>
    13a8:	ac 01       	movw	r20, r24
    13aa:	00 90 ac 04 	lds	r0, 0x04AC	; 0x8004ac <_data_pin_port_b>
    13ae:	02 c0       	rjmp	.+4      	; 0x13b4 <_send_char_to_host+0xce>
    13b0:	44 0f       	add	r20, r20
    13b2:	55 1f       	adc	r21, r21
    13b4:	0a 94       	dec	r0
    13b6:	e2 f7       	brpl	.-8      	; 0x13b0 <_send_char_to_host+0xca>
    13b8:	26 2f       	mov	r18, r22
    13ba:	24 2b       	or	r18, r20
    13bc:	23 2b       	or	r18, r19
    13be:	24 b9       	out	0x04, r18	; 4
    13c0:	35 b1       	in	r19, 0x05	; 5
    13c2:	ac 01       	movw	r20, r24
    13c4:	00 90 ac 04 	lds	r0, 0x04AC	; 0x8004ac <_data_pin_port_b>
    13c8:	02 c0       	rjmp	.+4      	; 0x13ce <_send_char_to_host+0xe8>
    13ca:	44 0f       	add	r20, r20
    13cc:	55 1f       	adc	r21, r21
    13ce:	0a 94       	dec	r0
    13d0:	e2 f7       	brpl	.-8      	; 0x13ca <_send_char_to_host+0xe4>
    13d2:	24 2f       	mov	r18, r20
    13d4:	20 95       	com	r18
    13d6:	23 23       	and	r18, r19
    13d8:	25 b9       	out	0x05, r18	; 5
    13da:	25 b1       	in	r18, 0x05	; 5
    13dc:	00 90 ad 04 	lds	r0, 0x04AD	; 0x8004ad <_clock_pin_port_b>
    13e0:	02 c0       	rjmp	.+4      	; 0x13e6 <_send_char_to_host+0x100>
    13e2:	88 0f       	add	r24, r24
    13e4:	99 1f       	adc	r25, r25
    13e6:	0a 94       	dec	r0
    13e8:	e2 f7       	brpl	.-8      	; 0x13e2 <_send_char_to_host+0xfc>
    13ea:	80 95       	com	r24
    13ec:	82 23       	and	r24, r18
    13ee:	85 b9       	out	0x05, r24	; 5
    13f0:	10 92 01 01 	sts	0x0101, r1	; 0x800101 <_clock_state>
    13f4:	8a e0       	ldi	r24, 0x0A	; 10
    13f6:	80 93 ae 04 	sts	0x04AE, r24	; 0x8004ae <_bit_index>
    13fa:	0e 94 b7 08 	call	0x116e	; 0x116e <_enable_timer0>
    13fe:	80 91 b0 04 	lds	r24, 0x04B0	; 0x8004b0 <_trans_in_progress>
    1402:	81 11       	cpse	r24, r1
    1404:	fc cf       	rjmp	.-8      	; 0x13fe <_send_char_to_host+0x118>
    1406:	80 91 af 04 	lds	r24, 0x04AF	; 0x8004af <_trans_interrupted>
    140a:	10 92 af 04 	sts	0x04AF, r1	; 0x8004af <_trans_interrupted>
    140e:	08 95       	ret
    1410:	80 e0       	ldi	r24, 0x00	; 0
    1412:	08 95       	ret

00001414 <_reset_state>:
    1414:	f8 94       	cli
    1416:	0e 94 d3 08 	call	0x11a6	; 0x11a6 <_conf_pins_input>
    141a:	81 e0       	ldi	r24, 0x01	; 1
    141c:	80 93 02 01 	sts	0x0102, r24	; 0x800102 <_ps2dev_enabled>
    1420:	10 92 b9 04 	sts	0x04B9, r1	; 0x8004b9 <_recv_buf_overflow>
    1424:	10 92 b4 04 	sts	0x04B4, r1	; 0x8004b4 <_rcvd_char>
    1428:	10 92 b3 04 	sts	0x04B3, r1	; 0x8004b3 <_rcvd_char_parity>
    142c:	10 92 b2 04 	sts	0x04B2, r1	; 0x8004b2 <_char_to_send>
    1430:	10 92 b1 04 	sts	0x04B1, r1	; 0x8004b1 <_char_to_send_parity>
    1434:	10 92 b0 04 	sts	0x04B0, r1	; 0x8004b0 <_trans_in_progress>
    1438:	10 92 aa 04 	sts	0x04AA, r1	; 0x8004aa <_recv_in_progress>
    143c:	10 92 ab 04 	sts	0x04AB, r1	; 0x8004ab <_host_req_dev_rcv>
    1440:	80 93 01 01 	sts	0x0101, r24	; 0x800101 <_clock_state>
    1444:	10 92 ae 04 	sts	0x04AE, r1	; 0x8004ae <_bit_index>
    1448:	10 92 b5 04 	sts	0x04B5, r1	; 0x8004b5 <_next_byte_led>
    144c:	10 92 b6 04 	sts	0x04B6, r1	; 0x8004b6 <_next_byte_typematic_rate>
    1450:	f8 94       	cli
    1452:	10 92 bb 04 	sts	0x04BB, r1	; 0x8004bb <_recv_buf_head>
    1456:	10 92 ba 04 	sts	0x04BA, r1	; 0x8004ba <_recv_buf_len>
    145a:	78 94       	sei
    145c:	f8 94       	cli
    145e:	10 92 b8 04 	sts	0x04B8, r1	; 0x8004b8 <_send_buf_head>
    1462:	10 92 b7 04 	sts	0x04B7, r1	; 0x8004b7 <_send_buf_len>
    1466:	78 94       	sei
    1468:	78 94       	sei
    146a:	8a ea       	ldi	r24, 0xAA	; 170
    146c:	0e 94 73 09 	call	0x12e6	; 0x12e6 <_send_char_to_host>
    1470:	81 e1       	ldi	r24, 0x11	; 17
    1472:	91 e0       	ldi	r25, 0x01	; 1
    1474:	0c 94 17 07 	jmp	0xe2e	; 0xe2e <debug_log>

00001478 <__vector_3>:
    1478:	1f 92       	push	r1
    147a:	0f 92       	push	r0
    147c:	0f b6       	in	r0, 0x3f	; 63
    147e:	0f 92       	push	r0
    1480:	11 24       	eor	r1, r1
    1482:	2f 93       	push	r18
    1484:	3f 93       	push	r19
    1486:	4f 93       	push	r20
    1488:	5f 93       	push	r21
    148a:	6f 93       	push	r22
    148c:	7f 93       	push	r23
    148e:	8f 93       	push	r24
    1490:	9f 93       	push	r25
    1492:	af 93       	push	r26
    1494:	bf 93       	push	r27
    1496:	ef 93       	push	r30
    1498:	ff 93       	push	r31
    149a:	cf 93       	push	r28
    149c:	df 93       	push	r29
    149e:	1f 92       	push	r1
    14a0:	cd b7       	in	r28, 0x3d	; 61
    14a2:	de b7       	in	r29, 0x3e	; 62
    14a4:	83 b1       	in	r24, 0x03	; 3
    14a6:	89 83       	std	Y+1, r24	; 0x01
    14a8:	89 81       	ldd	r24, Y+1	; 0x01
    14aa:	20 91 ad 04 	lds	r18, 0x04AD	; 0x8004ad <_clock_pin_port_b>
    14ae:	90 e0       	ldi	r25, 0x00	; 0
    14b0:	02 2e       	mov	r0, r18
    14b2:	02 c0       	rjmp	.+4      	; 0x14b8 <__vector_3+0x40>
    14b4:	95 95       	asr	r25
    14b6:	87 95       	ror	r24
    14b8:	0a 94       	dec	r0
    14ba:	e2 f7       	brpl	.-8      	; 0x14b4 <__vector_3+0x3c>
    14bc:	80 fd       	sbrc	r24, 0
    14be:	0f c0       	rjmp	.+30     	; 0x14de <__vector_3+0x66>
    14c0:	89 81       	ldd	r24, Y+1	; 0x01
    14c2:	90 e0       	ldi	r25, 0x00	; 0
    14c4:	00 90 ac 04 	lds	r0, 0x04AC	; 0x8004ac <_data_pin_port_b>
    14c8:	02 c0       	rjmp	.+4      	; 0x14ce <__vector_3+0x56>
    14ca:	95 95       	asr	r25
    14cc:	87 95       	ror	r24
    14ce:	0a 94       	dec	r0
    14d0:	e2 f7       	brpl	.-8      	; 0x14ca <__vector_3+0x52>
    14d2:	80 fd       	sbrc	r24, 0
    14d4:	04 c0       	rjmp	.+8      	; 0x14de <__vector_3+0x66>
    14d6:	81 e0       	ldi	r24, 0x01	; 1
    14d8:	80 93 ab 04 	sts	0x04AB, r24	; 0x8004ab <_host_req_dev_rcv>
    14dc:	4e c0       	rjmp	.+156    	; 0x157a <__vector_3+0x102>
    14de:	89 81       	ldd	r24, Y+1	; 0x01
    14e0:	90 e0       	ldi	r25, 0x00	; 0
    14e2:	02 c0       	rjmp	.+4      	; 0x14e8 <__vector_3+0x70>
    14e4:	95 95       	asr	r25
    14e6:	87 95       	ror	r24
    14e8:	2a 95       	dec	r18
    14ea:	e2 f7       	brpl	.-8      	; 0x14e4 <__vector_3+0x6c>
    14ec:	80 ff       	sbrs	r24, 0
    14ee:	43 c0       	rjmp	.+134    	; 0x1576 <__vector_3+0xfe>
    14f0:	89 81       	ldd	r24, Y+1	; 0x01
    14f2:	90 e0       	ldi	r25, 0x00	; 0
    14f4:	00 90 ac 04 	lds	r0, 0x04AC	; 0x8004ac <_data_pin_port_b>
    14f8:	02 c0       	rjmp	.+4      	; 0x14fe <__vector_3+0x86>
    14fa:	95 95       	asr	r25
    14fc:	87 95       	ror	r24
    14fe:	0a 94       	dec	r0
    1500:	e2 f7       	brpl	.-8      	; 0x14fa <__vector_3+0x82>
    1502:	80 fd       	sbrc	r24, 0
    1504:	38 c0       	rjmp	.+112    	; 0x1576 <__vector_3+0xfe>
    1506:	80 91 ab 04 	lds	r24, 0x04AB	; 0x8004ab <_host_req_dev_rcv>
    150a:	88 23       	and	r24, r24
    150c:	a1 f1       	breq	.+104    	; 0x1576 <__vector_3+0xfe>
    150e:	80 91 aa 04 	lds	r24, 0x04AA	; 0x8004aa <_recv_in_progress>
    1512:	81 11       	cpse	r24, r1
    1514:	30 c0       	rjmp	.+96     	; 0x1576 <__vector_3+0xfe>
    1516:	80 91 68 00 	lds	r24, 0x0068	; 0x800068 <__TEXT_REGION_LENGTH__+0x7e0068>
    151a:	8e 7f       	andi	r24, 0xFE	; 254
    151c:	80 93 68 00 	sts	0x0068, r24	; 0x800068 <__TEXT_REGION_LENGTH__+0x7e0068>
    1520:	30 91 6b 00 	lds	r19, 0x006B	; 0x80006b <__TEXT_REGION_LENGTH__+0x7e006b>
    1524:	81 e0       	ldi	r24, 0x01	; 1
    1526:	90 e0       	ldi	r25, 0x00	; 0
    1528:	ac 01       	movw	r20, r24
    152a:	00 90 ac 04 	lds	r0, 0x04AC	; 0x8004ac <_data_pin_port_b>
    152e:	02 c0       	rjmp	.+4      	; 0x1534 <__vector_3+0xbc>
    1530:	44 0f       	add	r20, r20
    1532:	55 1f       	adc	r21, r21
    1534:	0a 94       	dec	r0
    1536:	e2 f7       	brpl	.-8      	; 0x1530 <__vector_3+0xb8>
    1538:	24 2f       	mov	r18, r20
    153a:	20 95       	com	r18
    153c:	23 23       	and	r18, r19
    153e:	20 93 6b 00 	sts	0x006B, r18	; 0x80006b <__TEXT_REGION_LENGTH__+0x7e006b>
    1542:	20 91 6b 00 	lds	r18, 0x006B	; 0x80006b <__TEXT_REGION_LENGTH__+0x7e006b>
    1546:	00 90 ad 04 	lds	r0, 0x04AD	; 0x8004ad <_clock_pin_port_b>
    154a:	02 c0       	rjmp	.+4      	; 0x1550 <__vector_3+0xd8>
    154c:	88 0f       	add	r24, r24
    154e:	99 1f       	adc	r25, r25
    1550:	0a 94       	dec	r0
    1552:	e2 f7       	brpl	.-8      	; 0x154c <__vector_3+0xd4>
    1554:	80 95       	com	r24
    1556:	82 23       	and	r24, r18
    1558:	80 93 6b 00 	sts	0x006B, r24	; 0x80006b <__TEXT_REGION_LENGTH__+0x7e006b>
    155c:	81 e0       	ldi	r24, 0x01	; 1
    155e:	80 93 01 01 	sts	0x0101, r24	; 0x800101 <_clock_state>
    1562:	9a e0       	ldi	r25, 0x0A	; 10
    1564:	90 93 ae 04 	sts	0x04AE, r25	; 0x8004ae <_bit_index>
    1568:	10 92 ab 04 	sts	0x04AB, r1	; 0x8004ab <_host_req_dev_rcv>
    156c:	80 93 aa 04 	sts	0x04AA, r24	; 0x8004aa <_recv_in_progress>
    1570:	0e 94 b7 08 	call	0x116e	; 0x116e <_enable_timer0>
    1574:	02 c0       	rjmp	.+4      	; 0x157a <__vector_3+0x102>
    1576:	10 92 ab 04 	sts	0x04AB, r1	; 0x8004ab <_host_req_dev_rcv>
    157a:	0f 90       	pop	r0
    157c:	df 91       	pop	r29
    157e:	cf 91       	pop	r28
    1580:	ff 91       	pop	r31
    1582:	ef 91       	pop	r30
    1584:	bf 91       	pop	r27
    1586:	af 91       	pop	r26
    1588:	9f 91       	pop	r25
    158a:	8f 91       	pop	r24
    158c:	7f 91       	pop	r23
    158e:	6f 91       	pop	r22
    1590:	5f 91       	pop	r21
    1592:	4f 91       	pop	r20
    1594:	3f 91       	pop	r19
    1596:	2f 91       	pop	r18
    1598:	0f 90       	pop	r0
    159a:	0f be       	out	0x3f, r0	; 63
    159c:	0f 90       	pop	r0
    159e:	1f 90       	pop	r1
    15a0:	18 95       	reti

000015a2 <__vector_14>:
    15a2:	1f 92       	push	r1
    15a4:	0f 92       	push	r0
    15a6:	0f b6       	in	r0, 0x3f	; 63
    15a8:	0f 92       	push	r0
    15aa:	11 24       	eor	r1, r1
    15ac:	1f 93       	push	r17
    15ae:	2f 93       	push	r18
    15b0:	3f 93       	push	r19
    15b2:	4f 93       	push	r20
    15b4:	5f 93       	push	r21
    15b6:	6f 93       	push	r22
    15b8:	7f 93       	push	r23
    15ba:	8f 93       	push	r24
    15bc:	9f 93       	push	r25
    15be:	af 93       	push	r26
    15c0:	bf 93       	push	r27
    15c2:	cf 93       	push	r28
    15c4:	df 93       	push	r29
    15c6:	ef 93       	push	r30
    15c8:	ff 93       	push	r31
    15ca:	80 91 01 01 	lds	r24, 0x0101	; 0x800101 <_clock_state>
    15ce:	88 23       	and	r24, r24
    15d0:	09 f4       	brne	.+2      	; 0x15d4 <__vector_14+0x32>
    15d2:	76 c0       	rjmp	.+236    	; 0x16c0 <__vector_14+0x11e>
    15d4:	83 b1       	in	r24, 0x03	; 3
    15d6:	90 e0       	ldi	r25, 0x00	; 0
    15d8:	00 90 ad 04 	lds	r0, 0x04AD	; 0x8004ad <_clock_pin_port_b>
    15dc:	02 c0       	rjmp	.+4      	; 0x15e2 <__vector_14+0x40>
    15de:	95 95       	asr	r25
    15e0:	87 95       	ror	r24
    15e2:	0a 94       	dec	r0
    15e4:	e2 f7       	brpl	.-8      	; 0x15de <__vector_14+0x3c>
    15e6:	80 ff       	sbrs	r24, 0
    15e8:	5f c0       	rjmp	.+190    	; 0x16a8 <__vector_14+0x106>
    15ea:	c0 91 aa 04 	lds	r28, 0x04AA	; 0x8004aa <_recv_in_progress>
    15ee:	cc 23       	and	r28, r28
    15f0:	09 f4       	brne	.+2      	; 0x15f4 <__vector_14+0x52>
    15f2:	47 c0       	rjmp	.+142    	; 0x1682 <__vector_14+0xe0>
    15f4:	80 91 ae 04 	lds	r24, 0x04AE	; 0x8004ae <_bit_index>
    15f8:	81 11       	cpse	r24, r1
    15fa:	18 c0       	rjmp	.+48     	; 0x162c <__vector_14+0x8a>
    15fc:	44 b1       	in	r20, 0x04	; 4
    15fe:	81 e0       	ldi	r24, 0x01	; 1
    1600:	90 e0       	ldi	r25, 0x00	; 0
    1602:	9c 01       	movw	r18, r24
    1604:	00 90 ac 04 	lds	r0, 0x04AC	; 0x8004ac <_data_pin_port_b>
    1608:	02 c0       	rjmp	.+4      	; 0x160e <__vector_14+0x6c>
    160a:	22 0f       	add	r18, r18
    160c:	33 1f       	adc	r19, r19
    160e:	0a 94       	dec	r0
    1610:	e2 f7       	brpl	.-8      	; 0x160a <__vector_14+0x68>
    1612:	24 2b       	or	r18, r20
    1614:	24 b9       	out	0x04, r18	; 4
    1616:	25 b1       	in	r18, 0x05	; 5
    1618:	00 90 ac 04 	lds	r0, 0x04AC	; 0x8004ac <_data_pin_port_b>
    161c:	02 c0       	rjmp	.+4      	; 0x1622 <__vector_14+0x80>
    161e:	88 0f       	add	r24, r24
    1620:	99 1f       	adc	r25, r25
    1622:	0a 94       	dec	r0
    1624:	e2 f7       	brpl	.-8      	; 0x161e <__vector_14+0x7c>
    1626:	80 95       	com	r24
    1628:	82 23       	and	r24, r18
    162a:	85 b9       	out	0x05, r24	; 5
    162c:	80 91 ae 04 	lds	r24, 0x04AE	; 0x8004ae <_bit_index>
    1630:	87 ff       	sbrs	r24, 7
    1632:	25 c0       	rjmp	.+74     	; 0x167e <__vector_14+0xdc>
    1634:	10 92 ab 04 	sts	0x04AB, r1	; 0x8004ab <_host_req_dev_rcv>
    1638:	0e 94 ca 08 	call	0x1194	; 0x1194 <_disable_timer0>
    163c:	0e 94 d3 08 	call	0x11a6	; 0x11a6 <_conf_pins_input>
    1640:	10 92 aa 04 	sts	0x04AA, r1	; 0x8004aa <_recv_in_progress>
    1644:	90 91 b4 04 	lds	r25, 0x04B4	; 0x8004b4 <_rcvd_char>
    1648:	80 91 ba 04 	lds	r24, 0x04BA	; 0x8004ba <_recv_buf_len>
    164c:	81 11       	cpse	r24, r1
    164e:	11 c0       	rjmp	.+34     	; 0x1672 <__vector_14+0xd0>
    1650:	e0 91 bb 04 	lds	r30, 0x04BB	; 0x8004bb <_recv_buf_head>
    1654:	80 91 ba 04 	lds	r24, 0x04BA	; 0x8004ba <_recv_buf_len>
    1658:	e8 0f       	add	r30, r24
    165a:	09 f0       	breq	.+2      	; 0x165e <__vector_14+0xbc>
    165c:	e1 50       	subi	r30, 0x01	; 1
    165e:	f0 e0       	ldi	r31, 0x00	; 0
    1660:	e4 53       	subi	r30, 0x34	; 52
    1662:	fb 4f       	sbci	r31, 0xFB	; 251
    1664:	90 83       	st	Z, r25
    1666:	80 91 ba 04 	lds	r24, 0x04BA	; 0x8004ba <_recv_buf_len>
    166a:	8f 5f       	subi	r24, 0xFF	; 255
    166c:	80 93 ba 04 	sts	0x04BA, r24	; 0x8004ba <_recv_buf_len>
    1670:	01 c0       	rjmp	.+2      	; 0x1674 <__vector_14+0xd2>
    1672:	c0 e0       	ldi	r28, 0x00	; 0
    1674:	81 e0       	ldi	r24, 0x01	; 1
    1676:	8c 27       	eor	r24, r28
    1678:	80 93 b9 04 	sts	0x04B9, r24	; 0x8004b9 <_recv_buf_overflow>
    167c:	02 c0       	rjmp	.+4      	; 0x1682 <__vector_14+0xe0>
    167e:	0e 94 58 09 	call	0x12b0	; 0x12b0 <_conf_clock_out_low>
    1682:	80 91 b0 04 	lds	r24, 0x04B0	; 0x8004b0 <_trans_in_progress>
    1686:	88 23       	and	r24, r24
    1688:	09 f4       	brne	.+2      	; 0x168c <__vector_14+0xea>
    168a:	da c0       	rjmp	.+436    	; 0x1840 <__vector_14+0x29e>
    168c:	80 91 ae 04 	lds	r24, 0x04AE	; 0x8004ae <_bit_index>
    1690:	87 ff       	sbrs	r24, 7
    1692:	07 c0       	rjmp	.+14     	; 0x16a2 <__vector_14+0x100>
    1694:	0e 94 ca 08 	call	0x1194	; 0x1194 <_disable_timer0>
    1698:	0e 94 d3 08 	call	0x11a6	; 0x11a6 <_conf_pins_input>
    169c:	10 92 b0 04 	sts	0x04B0, r1	; 0x8004b0 <_trans_in_progress>
    16a0:	cf c0       	rjmp	.+414    	; 0x1840 <__vector_14+0x29e>
    16a2:	0e 94 58 09 	call	0x12b0	; 0x12b0 <_conf_clock_out_low>
    16a6:	cc c0       	rjmp	.+408    	; 0x1840 <__vector_14+0x29e>
    16a8:	0e 94 ca 08 	call	0x1194	; 0x1194 <_disable_timer0>
    16ac:	0e 94 d3 08 	call	0x11a6	; 0x11a6 <_conf_pins_input>
    16b0:	10 92 b0 04 	sts	0x04B0, r1	; 0x8004b0 <_trans_in_progress>
    16b4:	10 92 aa 04 	sts	0x04AA, r1	; 0x8004aa <_recv_in_progress>
    16b8:	81 e0       	ldi	r24, 0x01	; 1
    16ba:	80 93 ab 04 	sts	0x04AB, r24	; 0x8004ab <_host_req_dev_rcv>
    16be:	c0 c0       	rjmp	.+384    	; 0x1840 <__vector_14+0x29e>
    16c0:	80 91 aa 04 	lds	r24, 0x04AA	; 0x8004aa <_recv_in_progress>
    16c4:	88 23       	and	r24, r24
    16c6:	09 f4       	brne	.+2      	; 0x16ca <__vector_14+0x128>
    16c8:	64 c0       	rjmp	.+200    	; 0x1792 <__vector_14+0x1f0>
    16ca:	c3 b1       	in	r28, 0x03	; 3
    16cc:	d0 e0       	ldi	r29, 0x00	; 0
    16ce:	00 90 ac 04 	lds	r0, 0x04AC	; 0x8004ac <_data_pin_port_b>
    16d2:	02 c0       	rjmp	.+4      	; 0x16d8 <__vector_14+0x136>
    16d4:	d5 95       	asr	r29
    16d6:	c7 95       	ror	r28
    16d8:	0a 94       	dec	r0
    16da:	e2 f7       	brpl	.-8      	; 0x16d4 <__vector_14+0x132>
    16dc:	1c 2f       	mov	r17, r28
    16de:	11 70       	andi	r17, 0x01	; 1
    16e0:	0e 94 3a 09 	call	0x1274	; 0x1274 <_conf_clock_input_high>
    16e4:	e0 91 ae 04 	lds	r30, 0x04AE	; 0x8004ae <_bit_index>
    16e8:	8e 2f       	mov	r24, r30
    16ea:	ee 0f       	add	r30, r30
    16ec:	99 0b       	sbc	r25, r25
    16ee:	aa 0b       	sbc	r26, r26
    16f0:	bb 0b       	sbc	r27, r27
    16f2:	fc 01       	movw	r30, r24
    16f4:	32 97       	sbiw	r30, 0x02	; 2
    16f6:	e9 30       	cpi	r30, 0x09	; 9
    16f8:	f1 05       	cpc	r31, r1
    16fa:	08 f0       	brcs	.+2      	; 0x16fe <__vector_14+0x15c>
    16fc:	4a c0       	rjmp	.+148    	; 0x1792 <__vector_14+0x1f0>
    16fe:	ec 5c       	subi	r30, 0xCC	; 204
    1700:	ff 4f       	sbci	r31, 0xFF	; 255
    1702:	0c 94 71 0d 	jmp	0x1ae2	; 0x1ae2 <__tablejump2__>
    1706:	10 93 b4 04 	sts	0x04B4, r17	; 0x8004b4 <_rcvd_char>
    170a:	43 c0       	rjmp	.+134    	; 0x1792 <__vector_14+0x1f0>
    170c:	80 91 b4 04 	lds	r24, 0x04B4	; 0x8004b4 <_rcvd_char>
    1710:	c1 70       	andi	r28, 0x01	; 1
    1712:	dd 27       	eor	r29, r29
    1714:	cc 0f       	add	r28, r28
    1716:	dd 1f       	adc	r29, r29
    1718:	08 c0       	rjmp	.+16     	; 0x172a <__vector_14+0x188>
    171a:	80 91 b4 04 	lds	r24, 0x04B4	; 0x8004b4 <_rcvd_char>
    171e:	c1 70       	andi	r28, 0x01	; 1
    1720:	dd 27       	eor	r29, r29
    1722:	cc 0f       	add	r28, r28
    1724:	dd 1f       	adc	r29, r29
    1726:	cc 0f       	add	r28, r28
    1728:	dd 1f       	adc	r29, r29
    172a:	c8 2b       	or	r28, r24
    172c:	c0 93 b4 04 	sts	0x04B4, r28	; 0x8004b4 <_rcvd_char>
    1730:	30 c0       	rjmp	.+96     	; 0x1792 <__vector_14+0x1f0>
    1732:	80 91 b4 04 	lds	r24, 0x04B4	; 0x8004b4 <_rcvd_char>
    1736:	c1 70       	andi	r28, 0x01	; 1
    1738:	dd 27       	eor	r29, r29
    173a:	43 e0       	ldi	r20, 0x03	; 3
    173c:	cc 0f       	add	r28, r28
    173e:	dd 1f       	adc	r29, r29
    1740:	4a 95       	dec	r20
    1742:	e1 f7       	brne	.-8      	; 0x173c <__vector_14+0x19a>
    1744:	f2 cf       	rjmp	.-28     	; 0x172a <__vector_14+0x188>
    1746:	80 91 b4 04 	lds	r24, 0x04B4	; 0x8004b4 <_rcvd_char>
    174a:	c1 70       	andi	r28, 0x01	; 1
    174c:	dd 27       	eor	r29, r29
    174e:	34 e0       	ldi	r19, 0x04	; 4
    1750:	cc 0f       	add	r28, r28
    1752:	dd 1f       	adc	r29, r29
    1754:	3a 95       	dec	r19
    1756:	e1 f7       	brne	.-8      	; 0x1750 <__vector_14+0x1ae>
    1758:	e8 cf       	rjmp	.-48     	; 0x172a <__vector_14+0x188>
    175a:	80 91 b4 04 	lds	r24, 0x04B4	; 0x8004b4 <_rcvd_char>
    175e:	c1 70       	andi	r28, 0x01	; 1
    1760:	dd 27       	eor	r29, r29
    1762:	25 e0       	ldi	r18, 0x05	; 5
    1764:	cc 0f       	add	r28, r28
    1766:	dd 1f       	adc	r29, r29
    1768:	2a 95       	dec	r18
    176a:	e1 f7       	brne	.-8      	; 0x1764 <__vector_14+0x1c2>
    176c:	de cf       	rjmp	.-68     	; 0x172a <__vector_14+0x188>
    176e:	80 91 b4 04 	lds	r24, 0x04B4	; 0x8004b4 <_rcvd_char>
    1772:	c1 70       	andi	r28, 0x01	; 1
    1774:	dd 27       	eor	r29, r29
    1776:	96 e0       	ldi	r25, 0x06	; 6
    1778:	cc 0f       	add	r28, r28
    177a:	dd 1f       	adc	r29, r29
    177c:	9a 95       	dec	r25
    177e:	e1 f7       	brne	.-8      	; 0x1778 <__vector_14+0x1d6>
    1780:	d4 cf       	rjmp	.-88     	; 0x172a <__vector_14+0x188>
    1782:	80 91 b4 04 	lds	r24, 0x04B4	; 0x8004b4 <_rcvd_char>
    1786:	c7 95       	ror	r28
    1788:	cc 27       	eor	r28, r28
    178a:	c7 95       	ror	r28
    178c:	ce cf       	rjmp	.-100    	; 0x172a <__vector_14+0x188>
    178e:	10 93 b3 04 	sts	0x04B3, r17	; 0x8004b3 <_rcvd_char_parity>
    1792:	80 91 b0 04 	lds	r24, 0x04B0	; 0x8004b0 <_trans_in_progress>
    1796:	88 23       	and	r24, r24
    1798:	09 f4       	brne	.+2      	; 0x179c <__vector_14+0x1fa>
    179a:	4d c0       	rjmp	.+154    	; 0x1836 <__vector_14+0x294>
    179c:	0e 94 3a 09 	call	0x1274	; 0x1274 <_conf_clock_input_high>
    17a0:	80 91 ae 04 	lds	r24, 0x04AE	; 0x8004ae <_bit_index>
    17a4:	82 30       	cpi	r24, 0x02	; 2
    17a6:	79 f1       	breq	.+94     	; 0x1806 <__vector_14+0x264>
    17a8:	74 f4       	brge	.+28     	; 0x17c6 <__vector_14+0x224>
    17aa:	81 30       	cpi	r24, 0x01	; 1
    17ac:	09 f0       	breq	.+2      	; 0x17b0 <__vector_14+0x20e>
    17ae:	43 c0       	rjmp	.+134    	; 0x1836 <__vector_14+0x294>
    17b0:	25 b1       	in	r18, 0x05	; 5
    17b2:	81 e0       	ldi	r24, 0x01	; 1
    17b4:	90 e0       	ldi	r25, 0x00	; 0
    17b6:	00 90 ac 04 	lds	r0, 0x04AC	; 0x8004ac <_data_pin_port_b>
    17ba:	02 c0       	rjmp	.+4      	; 0x17c0 <__vector_14+0x21e>
    17bc:	88 0f       	add	r24, r24
    17be:	99 1f       	adc	r25, r25
    17c0:	0a 94       	dec	r0
    17c2:	e2 f7       	brpl	.-8      	; 0x17bc <__vector_14+0x21a>
    17c4:	36 c0       	rjmp	.+108    	; 0x1832 <__vector_14+0x290>
    17c6:	8b 30       	cpi	r24, 0x0B	; 11
    17c8:	b4 f5       	brge	.+108    	; 0x1836 <__vector_14+0x294>
    17ca:	80 91 b2 04 	lds	r24, 0x04B2	; 0x8004b2 <_char_to_send>
    17ce:	30 91 ac 04 	lds	r19, 0x04AC	; 0x8004ac <_data_pin_port_b>
    17d2:	25 b1       	in	r18, 0x05	; 5
    17d4:	80 ff       	sbrs	r24, 0
    17d6:	08 c0       	rjmp	.+16     	; 0x17e8 <__vector_14+0x246>
    17d8:	81 e0       	ldi	r24, 0x01	; 1
    17da:	90 e0       	ldi	r25, 0x00	; 0
    17dc:	01 c0       	rjmp	.+2      	; 0x17e0 <__vector_14+0x23e>
    17de:	88 0f       	add	r24, r24
    17e0:	3a 95       	dec	r19
    17e2:	ea f7       	brpl	.-6      	; 0x17de <__vector_14+0x23c>
    17e4:	82 2b       	or	r24, r18
    17e6:	08 c0       	rjmp	.+16     	; 0x17f8 <__vector_14+0x256>
    17e8:	81 e0       	ldi	r24, 0x01	; 1
    17ea:	90 e0       	ldi	r25, 0x00	; 0
    17ec:	01 c0       	rjmp	.+2      	; 0x17f0 <__vector_14+0x24e>
    17ee:	88 0f       	add	r24, r24
    17f0:	3a 95       	dec	r19
    17f2:	ea f7       	brpl	.-6      	; 0x17ee <__vector_14+0x24c>
    17f4:	80 95       	com	r24
    17f6:	82 23       	and	r24, r18
    17f8:	85 b9       	out	0x05, r24	; 5
    17fa:	80 91 b2 04 	lds	r24, 0x04B2	; 0x8004b2 <_char_to_send>
    17fe:	86 95       	lsr	r24
    1800:	80 93 b2 04 	sts	0x04B2, r24	; 0x8004b2 <_char_to_send>
    1804:	18 c0       	rjmp	.+48     	; 0x1836 <__vector_14+0x294>
    1806:	80 91 b1 04 	lds	r24, 0x04B1	; 0x8004b1 <_char_to_send_parity>
    180a:	30 91 ac 04 	lds	r19, 0x04AC	; 0x8004ac <_data_pin_port_b>
    180e:	25 b1       	in	r18, 0x05	; 5
    1810:	80 ff       	sbrs	r24, 0
    1812:	09 c0       	rjmp	.+18     	; 0x1826 <__vector_14+0x284>
    1814:	81 e0       	ldi	r24, 0x01	; 1
    1816:	90 e0       	ldi	r25, 0x00	; 0
    1818:	01 c0       	rjmp	.+2      	; 0x181c <__vector_14+0x27a>
    181a:	88 0f       	add	r24, r24
    181c:	3a 95       	dec	r19
    181e:	ea f7       	brpl	.-6      	; 0x181a <__vector_14+0x278>
    1820:	80 95       	com	r24
    1822:	82 23       	and	r24, r18
    1824:	07 c0       	rjmp	.+14     	; 0x1834 <__vector_14+0x292>
    1826:	81 e0       	ldi	r24, 0x01	; 1
    1828:	90 e0       	ldi	r25, 0x00	; 0
    182a:	01 c0       	rjmp	.+2      	; 0x182e <__vector_14+0x28c>
    182c:	88 0f       	add	r24, r24
    182e:	3a 95       	dec	r19
    1830:	ea f7       	brpl	.-6      	; 0x182c <__vector_14+0x28a>
    1832:	82 2b       	or	r24, r18
    1834:	85 b9       	out	0x05, r24	; 5
    1836:	80 91 ae 04 	lds	r24, 0x04AE	; 0x8004ae <_bit_index>
    183a:	81 50       	subi	r24, 0x01	; 1
    183c:	80 93 ae 04 	sts	0x04AE, r24	; 0x8004ae <_bit_index>
    1840:	ff 91       	pop	r31
    1842:	ef 91       	pop	r30
    1844:	df 91       	pop	r29
    1846:	cf 91       	pop	r28
    1848:	bf 91       	pop	r27
    184a:	af 91       	pop	r26
    184c:	9f 91       	pop	r25
    184e:	8f 91       	pop	r24
    1850:	7f 91       	pop	r23
    1852:	6f 91       	pop	r22
    1854:	5f 91       	pop	r21
    1856:	4f 91       	pop	r20
    1858:	3f 91       	pop	r19
    185a:	2f 91       	pop	r18
    185c:	1f 91       	pop	r17
    185e:	0f 90       	pop	r0
    1860:	0f be       	out	0x3f, r0	; 63
    1862:	0f 90       	pop	r0
    1864:	1f 90       	pop	r1
    1866:	18 95       	reti

00001868 <setup_ps2device>:
    1868:	80 93 ad 04 	sts	0x04AD, r24	; 0x8004ad <_clock_pin_port_b>
    186c:	60 93 ac 04 	sts	0x04AC, r22	; 0x8004ac <_data_pin_port_b>
    1870:	0c 94 0a 0a 	jmp	0x1414	; 0x1414 <_reset_state>

00001874 <do_ps2device_work>:
    1874:	cf 93       	push	r28
    1876:	c1 e0       	ldi	r28, 0x01	; 1
    1878:	80 91 ba 04 	lds	r24, 0x04BA	; 0x8004ba <_recv_buf_len>
    187c:	88 23       	and	r24, r24
    187e:	09 f4       	brne	.+2      	; 0x1882 <do_ps2device_work+0xe>
    1880:	e4 c0       	rjmp	.+456    	; 0x1a4a <do_ps2device_work+0x1d6>
    1882:	f8 94       	cli
    1884:	10 92 b8 04 	sts	0x04B8, r1	; 0x8004b8 <_send_buf_head>
    1888:	10 92 b7 04 	sts	0x04B7, r1	; 0x8004b7 <_send_buf_len>
    188c:	78 94       	sei
    188e:	80 91 b9 04 	lds	r24, 0x04B9	; 0x8004b9 <_recv_buf_overflow>
    1892:	88 23       	and	r24, r24
    1894:	31 f0       	breq	.+12     	; 0x18a2 <do_ps2device_work+0x2e>
    1896:	8b e1       	ldi	r24, 0x1B	; 27
    1898:	91 e0       	ldi	r25, 0x01	; 1
    189a:	0e 94 17 07 	call	0xe2e	; 0xe2e <debug_log>
    189e:	10 92 b9 04 	sts	0x04B9, r1	; 0x8004b9 <_recv_buf_overflow>
    18a2:	f8 94       	cli
    18a4:	80 91 ba 04 	lds	r24, 0x04BA	; 0x8004ba <_recv_buf_len>
    18a8:	81 11       	cpse	r24, r1
    18aa:	03 c0       	rjmp	.+6      	; 0x18b2 <do_ps2device_work+0x3e>
    18ac:	78 94       	sei
    18ae:	e0 e0       	ldi	r30, 0x00	; 0
    18b0:	19 c0       	rjmp	.+50     	; 0x18e4 <do_ps2device_work+0x70>
    18b2:	e0 91 bb 04 	lds	r30, 0x04BB	; 0x8004bb <_recv_buf_head>
    18b6:	f0 e0       	ldi	r31, 0x00	; 0
    18b8:	e4 53       	subi	r30, 0x34	; 52
    18ba:	fb 4f       	sbci	r31, 0xFB	; 251
    18bc:	80 81       	ld	r24, Z
    18be:	90 91 bb 04 	lds	r25, 0x04BB	; 0x8004bb <_recv_buf_head>
    18c2:	9f 5f       	subi	r25, 0xFF	; 255
    18c4:	90 93 bb 04 	sts	0x04BB, r25	; 0x8004bb <_recv_buf_head>
    18c8:	90 91 ba 04 	lds	r25, 0x04BA	; 0x8004ba <_recv_buf_len>
    18cc:	91 50       	subi	r25, 0x01	; 1
    18ce:	90 93 ba 04 	sts	0x04BA, r25	; 0x8004ba <_recv_buf_len>
    18d2:	90 91 bb 04 	lds	r25, 0x04BB	; 0x8004bb <_recv_buf_head>
    18d6:	91 11       	cpse	r25, r1
    18d8:	10 92 bb 04 	sts	0x04BB, r1	; 0x8004bb <_recv_buf_head>
    18dc:	78 94       	sei
    18de:	e8 2f       	mov	r30, r24
    18e0:	80 3c       	cpi	r24, 0xC0	; 192
    18e2:	e8 f4       	brcc	.+58     	; 0x191e <do_ps2device_work+0xaa>
    18e4:	80 91 b5 04 	lds	r24, 0x04B5	; 0x8004b5 <_next_byte_led>
    18e8:	81 11       	cpse	r24, r1
    18ea:	04 c0       	rjmp	.+8      	; 0x18f4 <do_ps2device_work+0x80>
    18ec:	80 91 b6 04 	lds	r24, 0x04B6	; 0x8004b6 <_next_byte_typematic_rate>
    18f0:	88 23       	and	r24, r24
    18f2:	a9 f0       	breq	.+42     	; 0x191e <do_ps2device_work+0xaa>
    18f4:	80 91 b6 04 	lds	r24, 0x04B6	; 0x8004b6 <_next_byte_typematic_rate>
    18f8:	88 23       	and	r24, r24
    18fa:	21 f0       	breq	.+8      	; 0x1904 <do_ps2device_work+0x90>
    18fc:	8c e2       	ldi	r24, 0x2C	; 44
    18fe:	91 e0       	ldi	r25, 0x01	; 1
    1900:	0e 94 17 07 	call	0xe2e	; 0xe2e <debug_log>
    1904:	80 91 b5 04 	lds	r24, 0x04B5	; 0x8004b5 <_next_byte_led>
    1908:	88 23       	and	r24, r24
    190a:	21 f0       	breq	.+8      	; 0x1914 <do_ps2device_work+0xa0>
    190c:	88 e3       	ldi	r24, 0x38	; 56
    190e:	91 e0       	ldi	r25, 0x01	; 1
    1910:	0e 94 17 07 	call	0xe2e	; 0xe2e <debug_log>
    1914:	10 92 b6 04 	sts	0x04B6, r1	; 0x8004b6 <_next_byte_typematic_rate>
    1918:	10 92 b5 04 	sts	0x04B5, r1	; 0x8004b5 <_next_byte_led>
    191c:	7b c0       	rjmp	.+246    	; 0x1a14 <do_ps2device_work+0x1a0>
    191e:	8e 2f       	mov	r24, r30
    1920:	90 e0       	ldi	r25, 0x00	; 0
    1922:	fc 01       	movw	r30, r24
    1924:	ed 5e       	subi	r30, 0xED	; 237
    1926:	f1 09       	sbc	r31, r1
    1928:	e3 31       	cpi	r30, 0x13	; 19
    192a:	f1 05       	cpc	r31, r1
    192c:	08 f0       	brcs	.+2      	; 0x1930 <do_ps2device_work+0xbc>
    192e:	7a c0       	rjmp	.+244    	; 0x1a24 <do_ps2device_work+0x1b0>
    1930:	e3 5c       	subi	r30, 0xC3	; 195
    1932:	ff 4f       	sbci	r31, 0xFF	; 255
    1934:	0c 94 71 0d 	jmp	0x1ae2	; 0x1ae2 <__tablejump2__>
    1938:	88 e4       	ldi	r24, 0x48	; 72
    193a:	91 e0       	ldi	r25, 0x01	; 1
    193c:	0e 94 17 07 	call	0xe2e	; 0xe2e <debug_log>
    1940:	8e ee       	ldi	r24, 0xEE	; 238
    1942:	0e 94 73 09 	call	0x12e6	; 0x12e6 <_send_char_to_host>
    1946:	80 e5       	ldi	r24, 0x50	; 80
    1948:	91 e0       	ldi	r25, 0x01	; 1
    194a:	69 c0       	rjmp	.+210    	; 0x1a1e <do_ps2device_work+0x1aa>
    194c:	88 e5       	ldi	r24, 0x58	; 88
    194e:	91 e0       	ldi	r25, 0x01	; 1
    1950:	21 c0       	rjmp	.+66     	; 0x1994 <do_ps2device_work+0x120>
    1952:	81 e0       	ldi	r24, 0x01	; 1
    1954:	80 93 02 01 	sts	0x0102, r24	; 0x800102 <_ps2dev_enabled>
    1958:	10 92 b5 04 	sts	0x04B5, r1	; 0x8004b5 <_next_byte_led>
    195c:	10 92 b6 04 	sts	0x04B6, r1	; 0x8004b6 <_next_byte_typematic_rate>
    1960:	82 e6       	ldi	r24, 0x62	; 98
    1962:	91 e0       	ldi	r25, 0x01	; 1
    1964:	0e 94 17 07 	call	0xe2e	; 0xe2e <debug_log>
    1968:	8a ef       	ldi	r24, 0xFA	; 250
    196a:	0e 94 73 09 	call	0x12e6	; 0x12e6 <_send_char_to_host>
    196e:	81 e4       	ldi	r24, 0x41	; 65
    1970:	91 e0       	ldi	r25, 0x01	; 1
    1972:	0e 94 17 07 	call	0xe2e	; 0xe2e <debug_log>
    1976:	cf 91       	pop	r28
    1978:	0c 94 0a 0a 	jmp	0x1414	; 0x1414 <_reset_state>
    197c:	8b e6       	ldi	r24, 0x6B	; 107
    197e:	91 e0       	ldi	r25, 0x01	; 1
    1980:	47 c0       	rjmp	.+142    	; 0x1a10 <do_ps2device_work+0x19c>
    1982:	c0 93 b6 04 	sts	0x04B6, r28	; 0x8004b6 <_next_byte_typematic_rate>
    1986:	88 e7       	ldi	r24, 0x78	; 120
    1988:	91 e0       	ldi	r25, 0x01	; 1
    198a:	04 c0       	rjmp	.+8      	; 0x1994 <do_ps2device_work+0x120>
    198c:	c0 93 b5 04 	sts	0x04B5, r28	; 0x8004b5 <_next_byte_led>
    1990:	84 e8       	ldi	r24, 0x84	; 132
    1992:	91 e0       	ldi	r25, 0x01	; 1
    1994:	0e 94 17 07 	call	0xe2e	; 0xe2e <debug_log>
    1998:	8a ef       	ldi	r24, 0xFA	; 250
    199a:	0e 94 73 09 	call	0x12e6	; 0x12e6 <_send_char_to_host>
    199e:	81 e4       	ldi	r24, 0x41	; 65
    19a0:	91 e0       	ldi	r25, 0x01	; 1
    19a2:	42 c0       	rjmp	.+132    	; 0x1a28 <do_ps2device_work+0x1b4>
    19a4:	8d e8       	ldi	r24, 0x8D	; 141
    19a6:	91 e0       	ldi	r25, 0x01	; 1
    19a8:	0e 94 17 07 	call	0xe2e	; 0xe2e <debug_log>
    19ac:	8a ef       	ldi	r24, 0xFA	; 250
    19ae:	0e 94 73 09 	call	0x12e6	; 0x12e6 <_send_char_to_host>
    19b2:	81 e4       	ldi	r24, 0x41	; 65
    19b4:	91 e0       	ldi	r25, 0x01	; 1
    19b6:	0e 94 17 07 	call	0xe2e	; 0xe2e <debug_log>
    19ba:	8b ea       	ldi	r24, 0xAB	; 171
    19bc:	0e 94 73 09 	call	0x12e6	; 0x12e6 <_send_char_to_host>
    19c0:	87 e9       	ldi	r24, 0x97	; 151
    19c2:	91 e0       	ldi	r25, 0x01	; 1
    19c4:	0e 94 17 07 	call	0xe2e	; 0xe2e <debug_log>
    19c8:	83 e8       	ldi	r24, 0x83	; 131
    19ca:	0e 94 73 09 	call	0x12e6	; 0x12e6 <_send_char_to_host>
    19ce:	8e e9       	ldi	r24, 0x9E	; 158
    19d0:	91 e0       	ldi	r25, 0x01	; 1
    19d2:	25 c0       	rjmp	.+74     	; 0x1a1e <do_ps2device_work+0x1aa>
    19d4:	85 ea       	ldi	r24, 0xA5	; 165
    19d6:	91 e0       	ldi	r25, 0x01	; 1
    19d8:	1b c0       	rjmp	.+54     	; 0x1a10 <do_ps2device_work+0x19c>
    19da:	80 eb       	ldi	r24, 0xB0	; 176
    19dc:	91 e0       	ldi	r25, 0x01	; 1
    19de:	0e 94 17 07 	call	0xe2e	; 0xe2e <debug_log>
    19e2:	8a ef       	ldi	r24, 0xFA	; 250
    19e4:	0e 94 73 09 	call	0x12e6	; 0x12e6 <_send_char_to_host>
    19e8:	81 e4       	ldi	r24, 0x41	; 65
    19ea:	91 e0       	ldi	r25, 0x01	; 1
    19ec:	0e 94 17 07 	call	0xe2e	; 0xe2e <debug_log>
    19f0:	10 92 02 01 	sts	0x0102, r1	; 0x800102 <_ps2dev_enabled>
    19f4:	10 92 b5 04 	sts	0x04B5, r1	; 0x8004b5 <_next_byte_led>
    19f8:	10 92 b6 04 	sts	0x04B6, r1	; 0x8004b6 <_next_byte_typematic_rate>
    19fc:	44 c0       	rjmp	.+136    	; 0x1a86 <do_ps2device_work+0x212>
    19fe:	81 e0       	ldi	r24, 0x01	; 1
    1a00:	80 93 02 01 	sts	0x0102, r24	; 0x800102 <_ps2dev_enabled>
    1a04:	10 92 b5 04 	sts	0x04B5, r1	; 0x8004b5 <_next_byte_led>
    1a08:	10 92 b6 04 	sts	0x04B6, r1	; 0x8004b6 <_next_byte_typematic_rate>
    1a0c:	8b eb       	ldi	r24, 0xBB	; 187
    1a0e:	91 e0       	ldi	r25, 0x01	; 1
    1a10:	0e 94 17 07 	call	0xe2e	; 0xe2e <debug_log>
    1a14:	8a ef       	ldi	r24, 0xFA	; 250
    1a16:	0e 94 73 09 	call	0x12e6	; 0x12e6 <_send_char_to_host>
    1a1a:	81 e4       	ldi	r24, 0x41	; 65
    1a1c:	91 e0       	ldi	r25, 0x01	; 1
    1a1e:	cf 91       	pop	r28
    1a20:	0c 94 17 07 	jmp	0xe2e	; 0xe2e <debug_log>
    1a24:	85 ec       	ldi	r24, 0xC5	; 197
    1a26:	91 e0       	ldi	r25, 0x01	; 1
    1a28:	0e 94 17 07 	call	0xe2e	; 0xe2e <debug_log>
    1a2c:	25 cf       	rjmp	.-438    	; 0x1878 <do_ps2device_work+0x4>
    1a2e:	80 91 b7 04 	lds	r24, 0x04B7	; 0x8004b7 <_send_buf_len>
    1a32:	88 23       	and	r24, r24
    1a34:	79 f0       	breq	.+30     	; 0x1a54 <do_ps2device_work+0x1e0>
    1a36:	e0 91 b8 04 	lds	r30, 0x04B8	; 0x8004b8 <_send_buf_head>
    1a3a:	f0 e0       	ldi	r31, 0x00	; 0
    1a3c:	e4 54       	subi	r30, 0x44	; 68
    1a3e:	fb 4f       	sbci	r31, 0xFB	; 251
    1a40:	80 81       	ld	r24, Z
    1a42:	0e 94 73 09 	call	0x12e6	; 0x12e6 <_send_char_to_host>
    1a46:	88 23       	and	r24, r24
    1a48:	39 f0       	breq	.+14     	; 0x1a58 <do_ps2device_work+0x1e4>
    1a4a:	80 91 b7 04 	lds	r24, 0x04B7	; 0x8004b7 <_send_buf_len>
    1a4e:	81 11       	cpse	r24, r1
    1a50:	ee cf       	rjmp	.-36     	; 0x1a2e <do_ps2device_work+0x1ba>
    1a52:	19 c0       	rjmp	.+50     	; 0x1a86 <do_ps2device_work+0x212>
    1a54:	80 e0       	ldi	r24, 0x00	; 0
    1a56:	f5 cf       	rjmp	.-22     	; 0x1a42 <do_ps2device_work+0x1ce>
    1a58:	f8 94       	cli
    1a5a:	80 91 b7 04 	lds	r24, 0x04B7	; 0x8004b7 <_send_buf_len>
    1a5e:	88 23       	and	r24, r24
    1a60:	81 f0       	breq	.+32     	; 0x1a82 <do_ps2device_work+0x20e>
    1a62:	80 91 b8 04 	lds	r24, 0x04B8	; 0x8004b8 <_send_buf_head>
    1a66:	8f 5f       	subi	r24, 0xFF	; 255
    1a68:	80 93 b8 04 	sts	0x04B8, r24	; 0x8004b8 <_send_buf_head>
    1a6c:	80 91 b7 04 	lds	r24, 0x04B7	; 0x8004b7 <_send_buf_len>
    1a70:	81 50       	subi	r24, 0x01	; 1
    1a72:	80 93 b7 04 	sts	0x04B7, r24	; 0x8004b7 <_send_buf_len>
    1a76:	80 91 b8 04 	lds	r24, 0x04B8	; 0x8004b8 <_send_buf_head>
    1a7a:	80 31       	cpi	r24, 0x10	; 16
    1a7c:	10 f0       	brcs	.+4      	; 0x1a82 <do_ps2device_work+0x20e>
    1a7e:	10 92 b8 04 	sts	0x04B8, r1	; 0x8004b8 <_send_buf_head>
    1a82:	78 94       	sei
    1a84:	e2 cf       	rjmp	.-60     	; 0x1a4a <do_ps2device_work+0x1d6>
    1a86:	cf 91       	pop	r28
    1a88:	08 95       	ret

00001a8a <add_char_to_send_buf>:
    1a8a:	f8 94       	cli
    1a8c:	90 91 b7 04 	lds	r25, 0x04B7	; 0x8004b7 <_send_buf_len>
    1a90:	90 31       	cpi	r25, 0x10	; 16
    1a92:	18 f0       	brcs	.+6      	; 0x1a9a <add_char_to_send_buf+0x10>
    1a94:	78 94       	sei
    1a96:	80 e0       	ldi	r24, 0x00	; 0
    1a98:	08 95       	ret
    1a9a:	e0 91 b8 04 	lds	r30, 0x04B8	; 0x8004b8 <_send_buf_head>
    1a9e:	90 91 b7 04 	lds	r25, 0x04B7	; 0x8004b7 <_send_buf_len>
    1aa2:	e9 0f       	add	r30, r25
    1aa4:	e0 31       	cpi	r30, 0x10	; 16
    1aa6:	08 f0       	brcs	.+2      	; 0x1aaa <add_char_to_send_buf+0x20>
    1aa8:	e0 51       	subi	r30, 0x10	; 16
    1aaa:	f0 e0       	ldi	r31, 0x00	; 0
    1aac:	e4 54       	subi	r30, 0x44	; 68
    1aae:	fb 4f       	sbci	r31, 0xFB	; 251
    1ab0:	80 83       	st	Z, r24
    1ab2:	80 91 b7 04 	lds	r24, 0x04B7	; 0x8004b7 <_send_buf_len>
    1ab6:	8f 5f       	subi	r24, 0xFF	; 255
    1ab8:	80 93 b7 04 	sts	0x04B7, r24	; 0x8004b7 <_send_buf_len>
    1abc:	78 94       	sei
    1abe:	81 e0       	ldi	r24, 0x01	; 1
    1ac0:	08 95       	ret

00001ac2 <__mulsi3>:
    1ac2:	db 01       	movw	r26, r22
    1ac4:	8f 93       	push	r24
    1ac6:	9f 93       	push	r25
    1ac8:	0e 94 77 0d 	call	0x1aee	; 0x1aee <__muluhisi3>
    1acc:	bf 91       	pop	r27
    1ace:	af 91       	pop	r26
    1ad0:	a2 9f       	mul	r26, r18
    1ad2:	80 0d       	add	r24, r0
    1ad4:	91 1d       	adc	r25, r1
    1ad6:	a3 9f       	mul	r26, r19
    1ad8:	90 0d       	add	r25, r0
    1ada:	b2 9f       	mul	r27, r18
    1adc:	90 0d       	add	r25, r0
    1ade:	11 24       	eor	r1, r1
    1ae0:	08 95       	ret

00001ae2 <__tablejump2__>:
    1ae2:	ee 0f       	add	r30, r30
    1ae4:	ff 1f       	adc	r31, r31
    1ae6:	05 90       	lpm	r0, Z+
    1ae8:	f4 91       	lpm	r31, Z
    1aea:	e0 2d       	mov	r30, r0
    1aec:	09 94       	ijmp

00001aee <__muluhisi3>:
    1aee:	0e 94 82 0d 	call	0x1b04	; 0x1b04 <__umulhisi3>
    1af2:	a5 9f       	mul	r26, r21
    1af4:	90 0d       	add	r25, r0
    1af6:	b4 9f       	mul	r27, r20
    1af8:	90 0d       	add	r25, r0
    1afa:	a4 9f       	mul	r26, r20
    1afc:	80 0d       	add	r24, r0
    1afe:	91 1d       	adc	r25, r1
    1b00:	11 24       	eor	r1, r1
    1b02:	08 95       	ret

00001b04 <__umulhisi3>:
    1b04:	a2 9f       	mul	r26, r18
    1b06:	b0 01       	movw	r22, r0
    1b08:	b3 9f       	mul	r27, r19
    1b0a:	c0 01       	movw	r24, r0
    1b0c:	a3 9f       	mul	r26, r19
    1b0e:	70 0d       	add	r23, r0
    1b10:	81 1d       	adc	r24, r1
    1b12:	11 24       	eor	r1, r1
    1b14:	91 1d       	adc	r25, r1
    1b16:	b2 9f       	mul	r27, r18
    1b18:	70 0d       	add	r23, r0
    1b1a:	81 1d       	adc	r24, r1
    1b1c:	11 24       	eor	r1, r1
    1b1e:	91 1d       	adc	r25, r1
    1b20:	08 95       	ret

00001b22 <sprintf>:
    1b22:	ae e0       	ldi	r26, 0x0E	; 14
    1b24:	b0 e0       	ldi	r27, 0x00	; 0
    1b26:	e7 e9       	ldi	r30, 0x97	; 151
    1b28:	fd e0       	ldi	r31, 0x0D	; 13
    1b2a:	0c 94 52 10 	jmp	0x20a4	; 0x20a4 <__prologue_saves__+0x1c>
    1b2e:	0d 89       	ldd	r16, Y+21	; 0x15
    1b30:	1e 89       	ldd	r17, Y+22	; 0x16
    1b32:	86 e0       	ldi	r24, 0x06	; 6
    1b34:	8c 83       	std	Y+4, r24	; 0x04
    1b36:	1a 83       	std	Y+2, r17	; 0x02
    1b38:	09 83       	std	Y+1, r16	; 0x01
    1b3a:	8f ef       	ldi	r24, 0xFF	; 255
    1b3c:	9f e7       	ldi	r25, 0x7F	; 127
    1b3e:	9e 83       	std	Y+6, r25	; 0x06
    1b40:	8d 83       	std	Y+5, r24	; 0x05
    1b42:	ae 01       	movw	r20, r28
    1b44:	47 5e       	subi	r20, 0xE7	; 231
    1b46:	5f 4f       	sbci	r21, 0xFF	; 255
    1b48:	6f 89       	ldd	r22, Y+23	; 0x17
    1b4a:	78 8d       	ldd	r23, Y+24	; 0x18
    1b4c:	ce 01       	movw	r24, r28
    1b4e:	01 96       	adiw	r24, 0x01	; 1
    1b50:	0e 94 b3 0d 	call	0x1b66	; 0x1b66 <vfprintf>
    1b54:	ef 81       	ldd	r30, Y+7	; 0x07
    1b56:	f8 85       	ldd	r31, Y+8	; 0x08
    1b58:	e0 0f       	add	r30, r16
    1b5a:	f1 1f       	adc	r31, r17
    1b5c:	10 82       	st	Z, r1
    1b5e:	2e 96       	adiw	r28, 0x0e	; 14
    1b60:	e4 e0       	ldi	r30, 0x04	; 4
    1b62:	0c 94 6e 10 	jmp	0x20dc	; 0x20dc <__epilogue_restores__+0x1c>

00001b66 <vfprintf>:
    1b66:	ab e0       	ldi	r26, 0x0B	; 11
    1b68:	b0 e0       	ldi	r27, 0x00	; 0
    1b6a:	e9 eb       	ldi	r30, 0xB9	; 185
    1b6c:	fd e0       	ldi	r31, 0x0D	; 13
    1b6e:	0c 94 44 10 	jmp	0x2088	; 0x2088 <__prologue_saves__>
    1b72:	6c 01       	movw	r12, r24
    1b74:	7b 01       	movw	r14, r22
    1b76:	8a 01       	movw	r16, r20
    1b78:	fc 01       	movw	r30, r24
    1b7a:	17 82       	std	Z+7, r1	; 0x07
    1b7c:	16 82       	std	Z+6, r1	; 0x06
    1b7e:	83 81       	ldd	r24, Z+3	; 0x03
    1b80:	81 ff       	sbrs	r24, 1
    1b82:	cc c1       	rjmp	.+920    	; 0x1f1c <vfprintf+0x3b6>
    1b84:	ce 01       	movw	r24, r28
    1b86:	01 96       	adiw	r24, 0x01	; 1
    1b88:	3c 01       	movw	r6, r24
    1b8a:	f6 01       	movw	r30, r12
    1b8c:	93 81       	ldd	r25, Z+3	; 0x03
    1b8e:	f7 01       	movw	r30, r14
    1b90:	93 fd       	sbrc	r25, 3
    1b92:	85 91       	lpm	r24, Z+
    1b94:	93 ff       	sbrs	r25, 3
    1b96:	81 91       	ld	r24, Z+
    1b98:	7f 01       	movw	r14, r30
    1b9a:	88 23       	and	r24, r24
    1b9c:	09 f4       	brne	.+2      	; 0x1ba0 <vfprintf+0x3a>
    1b9e:	ba c1       	rjmp	.+884    	; 0x1f14 <vfprintf+0x3ae>
    1ba0:	85 32       	cpi	r24, 0x25	; 37
    1ba2:	39 f4       	brne	.+14     	; 0x1bb2 <vfprintf+0x4c>
    1ba4:	93 fd       	sbrc	r25, 3
    1ba6:	85 91       	lpm	r24, Z+
    1ba8:	93 ff       	sbrs	r25, 3
    1baa:	81 91       	ld	r24, Z+
    1bac:	7f 01       	movw	r14, r30
    1bae:	85 32       	cpi	r24, 0x25	; 37
    1bb0:	29 f4       	brne	.+10     	; 0x1bbc <vfprintf+0x56>
    1bb2:	b6 01       	movw	r22, r12
    1bb4:	90 e0       	ldi	r25, 0x00	; 0
    1bb6:	0e 94 aa 0f 	call	0x1f54	; 0x1f54 <fputc>
    1bba:	e7 cf       	rjmp	.-50     	; 0x1b8a <vfprintf+0x24>
    1bbc:	91 2c       	mov	r9, r1
    1bbe:	21 2c       	mov	r2, r1
    1bc0:	31 2c       	mov	r3, r1
    1bc2:	ff e1       	ldi	r31, 0x1F	; 31
    1bc4:	f3 15       	cp	r31, r3
    1bc6:	d8 f0       	brcs	.+54     	; 0x1bfe <vfprintf+0x98>
    1bc8:	8b 32       	cpi	r24, 0x2B	; 43
    1bca:	79 f0       	breq	.+30     	; 0x1bea <vfprintf+0x84>
    1bcc:	38 f4       	brcc	.+14     	; 0x1bdc <vfprintf+0x76>
    1bce:	80 32       	cpi	r24, 0x20	; 32
    1bd0:	79 f0       	breq	.+30     	; 0x1bf0 <vfprintf+0x8a>
    1bd2:	83 32       	cpi	r24, 0x23	; 35
    1bd4:	a1 f4       	brne	.+40     	; 0x1bfe <vfprintf+0x98>
    1bd6:	23 2d       	mov	r18, r3
    1bd8:	20 61       	ori	r18, 0x10	; 16
    1bda:	1d c0       	rjmp	.+58     	; 0x1c16 <vfprintf+0xb0>
    1bdc:	8d 32       	cpi	r24, 0x2D	; 45
    1bde:	61 f0       	breq	.+24     	; 0x1bf8 <vfprintf+0x92>
    1be0:	80 33       	cpi	r24, 0x30	; 48
    1be2:	69 f4       	brne	.+26     	; 0x1bfe <vfprintf+0x98>
    1be4:	23 2d       	mov	r18, r3
    1be6:	21 60       	ori	r18, 0x01	; 1
    1be8:	16 c0       	rjmp	.+44     	; 0x1c16 <vfprintf+0xb0>
    1bea:	83 2d       	mov	r24, r3
    1bec:	82 60       	ori	r24, 0x02	; 2
    1bee:	38 2e       	mov	r3, r24
    1bf0:	e3 2d       	mov	r30, r3
    1bf2:	e4 60       	ori	r30, 0x04	; 4
    1bf4:	3e 2e       	mov	r3, r30
    1bf6:	2a c0       	rjmp	.+84     	; 0x1c4c <vfprintf+0xe6>
    1bf8:	f3 2d       	mov	r31, r3
    1bfa:	f8 60       	ori	r31, 0x08	; 8
    1bfc:	1d c0       	rjmp	.+58     	; 0x1c38 <vfprintf+0xd2>
    1bfe:	37 fc       	sbrc	r3, 7
    1c00:	2d c0       	rjmp	.+90     	; 0x1c5c <vfprintf+0xf6>
    1c02:	20 ed       	ldi	r18, 0xD0	; 208
    1c04:	28 0f       	add	r18, r24
    1c06:	2a 30       	cpi	r18, 0x0A	; 10
    1c08:	40 f0       	brcs	.+16     	; 0x1c1a <vfprintf+0xb4>
    1c0a:	8e 32       	cpi	r24, 0x2E	; 46
    1c0c:	b9 f4       	brne	.+46     	; 0x1c3c <vfprintf+0xd6>
    1c0e:	36 fc       	sbrc	r3, 6
    1c10:	81 c1       	rjmp	.+770    	; 0x1f14 <vfprintf+0x3ae>
    1c12:	23 2d       	mov	r18, r3
    1c14:	20 64       	ori	r18, 0x40	; 64
    1c16:	32 2e       	mov	r3, r18
    1c18:	19 c0       	rjmp	.+50     	; 0x1c4c <vfprintf+0xe6>
    1c1a:	36 fe       	sbrs	r3, 6
    1c1c:	06 c0       	rjmp	.+12     	; 0x1c2a <vfprintf+0xc4>
    1c1e:	8a e0       	ldi	r24, 0x0A	; 10
    1c20:	98 9e       	mul	r9, r24
    1c22:	20 0d       	add	r18, r0
    1c24:	11 24       	eor	r1, r1
    1c26:	92 2e       	mov	r9, r18
    1c28:	11 c0       	rjmp	.+34     	; 0x1c4c <vfprintf+0xe6>
    1c2a:	ea e0       	ldi	r30, 0x0A	; 10
    1c2c:	2e 9e       	mul	r2, r30
    1c2e:	20 0d       	add	r18, r0
    1c30:	11 24       	eor	r1, r1
    1c32:	22 2e       	mov	r2, r18
    1c34:	f3 2d       	mov	r31, r3
    1c36:	f0 62       	ori	r31, 0x20	; 32
    1c38:	3f 2e       	mov	r3, r31
    1c3a:	08 c0       	rjmp	.+16     	; 0x1c4c <vfprintf+0xe6>
    1c3c:	8c 36       	cpi	r24, 0x6C	; 108
    1c3e:	21 f4       	brne	.+8      	; 0x1c48 <vfprintf+0xe2>
    1c40:	83 2d       	mov	r24, r3
    1c42:	80 68       	ori	r24, 0x80	; 128
    1c44:	38 2e       	mov	r3, r24
    1c46:	02 c0       	rjmp	.+4      	; 0x1c4c <vfprintf+0xe6>
    1c48:	88 36       	cpi	r24, 0x68	; 104
    1c4a:	41 f4       	brne	.+16     	; 0x1c5c <vfprintf+0xf6>
    1c4c:	f7 01       	movw	r30, r14
    1c4e:	93 fd       	sbrc	r25, 3
    1c50:	85 91       	lpm	r24, Z+
    1c52:	93 ff       	sbrs	r25, 3
    1c54:	81 91       	ld	r24, Z+
    1c56:	7f 01       	movw	r14, r30
    1c58:	81 11       	cpse	r24, r1
    1c5a:	b3 cf       	rjmp	.-154    	; 0x1bc2 <vfprintf+0x5c>
    1c5c:	98 2f       	mov	r25, r24
    1c5e:	9f 7d       	andi	r25, 0xDF	; 223
    1c60:	95 54       	subi	r25, 0x45	; 69
    1c62:	93 30       	cpi	r25, 0x03	; 3
    1c64:	28 f4       	brcc	.+10     	; 0x1c70 <vfprintf+0x10a>
    1c66:	0c 5f       	subi	r16, 0xFC	; 252
    1c68:	1f 4f       	sbci	r17, 0xFF	; 255
    1c6a:	9f e3       	ldi	r25, 0x3F	; 63
    1c6c:	99 83       	std	Y+1, r25	; 0x01
    1c6e:	0d c0       	rjmp	.+26     	; 0x1c8a <vfprintf+0x124>
    1c70:	83 36       	cpi	r24, 0x63	; 99
    1c72:	31 f0       	breq	.+12     	; 0x1c80 <vfprintf+0x11a>
    1c74:	83 37       	cpi	r24, 0x73	; 115
    1c76:	71 f0       	breq	.+28     	; 0x1c94 <vfprintf+0x12e>
    1c78:	83 35       	cpi	r24, 0x53	; 83
    1c7a:	09 f0       	breq	.+2      	; 0x1c7e <vfprintf+0x118>
    1c7c:	59 c0       	rjmp	.+178    	; 0x1d30 <vfprintf+0x1ca>
    1c7e:	21 c0       	rjmp	.+66     	; 0x1cc2 <vfprintf+0x15c>
    1c80:	f8 01       	movw	r30, r16
    1c82:	80 81       	ld	r24, Z
    1c84:	89 83       	std	Y+1, r24	; 0x01
    1c86:	0e 5f       	subi	r16, 0xFE	; 254
    1c88:	1f 4f       	sbci	r17, 0xFF	; 255
    1c8a:	88 24       	eor	r8, r8
    1c8c:	83 94       	inc	r8
    1c8e:	91 2c       	mov	r9, r1
    1c90:	53 01       	movw	r10, r6
    1c92:	13 c0       	rjmp	.+38     	; 0x1cba <vfprintf+0x154>
    1c94:	28 01       	movw	r4, r16
    1c96:	f2 e0       	ldi	r31, 0x02	; 2
    1c98:	4f 0e       	add	r4, r31
    1c9a:	51 1c       	adc	r5, r1
    1c9c:	f8 01       	movw	r30, r16
    1c9e:	a0 80       	ld	r10, Z
    1ca0:	b1 80       	ldd	r11, Z+1	; 0x01
    1ca2:	36 fe       	sbrs	r3, 6
    1ca4:	03 c0       	rjmp	.+6      	; 0x1cac <vfprintf+0x146>
    1ca6:	69 2d       	mov	r22, r9
    1ca8:	70 e0       	ldi	r23, 0x00	; 0
    1caa:	02 c0       	rjmp	.+4      	; 0x1cb0 <vfprintf+0x14a>
    1cac:	6f ef       	ldi	r22, 0xFF	; 255
    1cae:	7f ef       	ldi	r23, 0xFF	; 255
    1cb0:	c5 01       	movw	r24, r10
    1cb2:	0e 94 9f 0f 	call	0x1f3e	; 0x1f3e <strnlen>
    1cb6:	4c 01       	movw	r8, r24
    1cb8:	82 01       	movw	r16, r4
    1cba:	f3 2d       	mov	r31, r3
    1cbc:	ff 77       	andi	r31, 0x7F	; 127
    1cbe:	3f 2e       	mov	r3, r31
    1cc0:	16 c0       	rjmp	.+44     	; 0x1cee <vfprintf+0x188>
    1cc2:	28 01       	movw	r4, r16
    1cc4:	22 e0       	ldi	r18, 0x02	; 2
    1cc6:	42 0e       	add	r4, r18
    1cc8:	51 1c       	adc	r5, r1
    1cca:	f8 01       	movw	r30, r16
    1ccc:	a0 80       	ld	r10, Z
    1cce:	b1 80       	ldd	r11, Z+1	; 0x01
    1cd0:	36 fe       	sbrs	r3, 6
    1cd2:	03 c0       	rjmp	.+6      	; 0x1cda <vfprintf+0x174>
    1cd4:	69 2d       	mov	r22, r9
    1cd6:	70 e0       	ldi	r23, 0x00	; 0
    1cd8:	02 c0       	rjmp	.+4      	; 0x1cde <vfprintf+0x178>
    1cda:	6f ef       	ldi	r22, 0xFF	; 255
    1cdc:	7f ef       	ldi	r23, 0xFF	; 255
    1cde:	c5 01       	movw	r24, r10
    1ce0:	0e 94 94 0f 	call	0x1f28	; 0x1f28 <strnlen_P>
    1ce4:	4c 01       	movw	r8, r24
    1ce6:	f3 2d       	mov	r31, r3
    1ce8:	f0 68       	ori	r31, 0x80	; 128
    1cea:	3f 2e       	mov	r3, r31
    1cec:	82 01       	movw	r16, r4
    1cee:	33 fc       	sbrc	r3, 3
    1cf0:	1b c0       	rjmp	.+54     	; 0x1d28 <vfprintf+0x1c2>
    1cf2:	82 2d       	mov	r24, r2
    1cf4:	90 e0       	ldi	r25, 0x00	; 0
    1cf6:	88 16       	cp	r8, r24
    1cf8:	99 06       	cpc	r9, r25
    1cfa:	b0 f4       	brcc	.+44     	; 0x1d28 <vfprintf+0x1c2>
    1cfc:	b6 01       	movw	r22, r12
    1cfe:	80 e2       	ldi	r24, 0x20	; 32
    1d00:	90 e0       	ldi	r25, 0x00	; 0
    1d02:	0e 94 aa 0f 	call	0x1f54	; 0x1f54 <fputc>
    1d06:	2a 94       	dec	r2
    1d08:	f4 cf       	rjmp	.-24     	; 0x1cf2 <vfprintf+0x18c>
    1d0a:	f5 01       	movw	r30, r10
    1d0c:	37 fc       	sbrc	r3, 7
    1d0e:	85 91       	lpm	r24, Z+
    1d10:	37 fe       	sbrs	r3, 7
    1d12:	81 91       	ld	r24, Z+
    1d14:	5f 01       	movw	r10, r30
    1d16:	b6 01       	movw	r22, r12
    1d18:	90 e0       	ldi	r25, 0x00	; 0
    1d1a:	0e 94 aa 0f 	call	0x1f54	; 0x1f54 <fputc>
    1d1e:	21 10       	cpse	r2, r1
    1d20:	2a 94       	dec	r2
    1d22:	21 e0       	ldi	r18, 0x01	; 1
    1d24:	82 1a       	sub	r8, r18
    1d26:	91 08       	sbc	r9, r1
    1d28:	81 14       	cp	r8, r1
    1d2a:	91 04       	cpc	r9, r1
    1d2c:	71 f7       	brne	.-36     	; 0x1d0a <vfprintf+0x1a4>
    1d2e:	e8 c0       	rjmp	.+464    	; 0x1f00 <vfprintf+0x39a>
    1d30:	84 36       	cpi	r24, 0x64	; 100
    1d32:	11 f0       	breq	.+4      	; 0x1d38 <vfprintf+0x1d2>
    1d34:	89 36       	cpi	r24, 0x69	; 105
    1d36:	41 f5       	brne	.+80     	; 0x1d88 <vfprintf+0x222>
    1d38:	f8 01       	movw	r30, r16
    1d3a:	37 fe       	sbrs	r3, 7
    1d3c:	07 c0       	rjmp	.+14     	; 0x1d4c <vfprintf+0x1e6>
    1d3e:	60 81       	ld	r22, Z
    1d40:	71 81       	ldd	r23, Z+1	; 0x01
    1d42:	82 81       	ldd	r24, Z+2	; 0x02
    1d44:	93 81       	ldd	r25, Z+3	; 0x03
    1d46:	0c 5f       	subi	r16, 0xFC	; 252
    1d48:	1f 4f       	sbci	r17, 0xFF	; 255
    1d4a:	08 c0       	rjmp	.+16     	; 0x1d5c <vfprintf+0x1f6>
    1d4c:	60 81       	ld	r22, Z
    1d4e:	71 81       	ldd	r23, Z+1	; 0x01
    1d50:	07 2e       	mov	r0, r23
    1d52:	00 0c       	add	r0, r0
    1d54:	88 0b       	sbc	r24, r24
    1d56:	99 0b       	sbc	r25, r25
    1d58:	0e 5f       	subi	r16, 0xFE	; 254
    1d5a:	1f 4f       	sbci	r17, 0xFF	; 255
    1d5c:	f3 2d       	mov	r31, r3
    1d5e:	ff 76       	andi	r31, 0x6F	; 111
    1d60:	3f 2e       	mov	r3, r31
    1d62:	97 ff       	sbrs	r25, 7
    1d64:	09 c0       	rjmp	.+18     	; 0x1d78 <vfprintf+0x212>
    1d66:	90 95       	com	r25
    1d68:	80 95       	com	r24
    1d6a:	70 95       	com	r23
    1d6c:	61 95       	neg	r22
    1d6e:	7f 4f       	sbci	r23, 0xFF	; 255
    1d70:	8f 4f       	sbci	r24, 0xFF	; 255
    1d72:	9f 4f       	sbci	r25, 0xFF	; 255
    1d74:	f0 68       	ori	r31, 0x80	; 128
    1d76:	3f 2e       	mov	r3, r31
    1d78:	2a e0       	ldi	r18, 0x0A	; 10
    1d7a:	30 e0       	ldi	r19, 0x00	; 0
    1d7c:	a3 01       	movw	r20, r6
    1d7e:	0e 94 e6 0f 	call	0x1fcc	; 0x1fcc <__ultoa_invert>
    1d82:	88 2e       	mov	r8, r24
    1d84:	86 18       	sub	r8, r6
    1d86:	45 c0       	rjmp	.+138    	; 0x1e12 <vfprintf+0x2ac>
    1d88:	85 37       	cpi	r24, 0x75	; 117
    1d8a:	31 f4       	brne	.+12     	; 0x1d98 <vfprintf+0x232>
    1d8c:	23 2d       	mov	r18, r3
    1d8e:	2f 7e       	andi	r18, 0xEF	; 239
    1d90:	b2 2e       	mov	r11, r18
    1d92:	2a e0       	ldi	r18, 0x0A	; 10
    1d94:	30 e0       	ldi	r19, 0x00	; 0
    1d96:	25 c0       	rjmp	.+74     	; 0x1de2 <vfprintf+0x27c>
    1d98:	93 2d       	mov	r25, r3
    1d9a:	99 7f       	andi	r25, 0xF9	; 249
    1d9c:	b9 2e       	mov	r11, r25
    1d9e:	8f 36       	cpi	r24, 0x6F	; 111
    1da0:	c1 f0       	breq	.+48     	; 0x1dd2 <vfprintf+0x26c>
    1da2:	18 f4       	brcc	.+6      	; 0x1daa <vfprintf+0x244>
    1da4:	88 35       	cpi	r24, 0x58	; 88
    1da6:	79 f0       	breq	.+30     	; 0x1dc6 <vfprintf+0x260>
    1da8:	b5 c0       	rjmp	.+362    	; 0x1f14 <vfprintf+0x3ae>
    1daa:	80 37       	cpi	r24, 0x70	; 112
    1dac:	19 f0       	breq	.+6      	; 0x1db4 <vfprintf+0x24e>
    1dae:	88 37       	cpi	r24, 0x78	; 120
    1db0:	21 f0       	breq	.+8      	; 0x1dba <vfprintf+0x254>
    1db2:	b0 c0       	rjmp	.+352    	; 0x1f14 <vfprintf+0x3ae>
    1db4:	e9 2f       	mov	r30, r25
    1db6:	e0 61       	ori	r30, 0x10	; 16
    1db8:	be 2e       	mov	r11, r30
    1dba:	b4 fe       	sbrs	r11, 4
    1dbc:	0d c0       	rjmp	.+26     	; 0x1dd8 <vfprintf+0x272>
    1dbe:	fb 2d       	mov	r31, r11
    1dc0:	f4 60       	ori	r31, 0x04	; 4
    1dc2:	bf 2e       	mov	r11, r31
    1dc4:	09 c0       	rjmp	.+18     	; 0x1dd8 <vfprintf+0x272>
    1dc6:	34 fe       	sbrs	r3, 4
    1dc8:	0a c0       	rjmp	.+20     	; 0x1dde <vfprintf+0x278>
    1dca:	29 2f       	mov	r18, r25
    1dcc:	26 60       	ori	r18, 0x06	; 6
    1dce:	b2 2e       	mov	r11, r18
    1dd0:	06 c0       	rjmp	.+12     	; 0x1dde <vfprintf+0x278>
    1dd2:	28 e0       	ldi	r18, 0x08	; 8
    1dd4:	30 e0       	ldi	r19, 0x00	; 0
    1dd6:	05 c0       	rjmp	.+10     	; 0x1de2 <vfprintf+0x27c>
    1dd8:	20 e1       	ldi	r18, 0x10	; 16
    1dda:	30 e0       	ldi	r19, 0x00	; 0
    1ddc:	02 c0       	rjmp	.+4      	; 0x1de2 <vfprintf+0x27c>
    1dde:	20 e1       	ldi	r18, 0x10	; 16
    1de0:	32 e0       	ldi	r19, 0x02	; 2
    1de2:	f8 01       	movw	r30, r16
    1de4:	b7 fe       	sbrs	r11, 7
    1de6:	07 c0       	rjmp	.+14     	; 0x1df6 <vfprintf+0x290>
    1de8:	60 81       	ld	r22, Z
    1dea:	71 81       	ldd	r23, Z+1	; 0x01
    1dec:	82 81       	ldd	r24, Z+2	; 0x02
    1dee:	93 81       	ldd	r25, Z+3	; 0x03
    1df0:	0c 5f       	subi	r16, 0xFC	; 252
    1df2:	1f 4f       	sbci	r17, 0xFF	; 255
    1df4:	06 c0       	rjmp	.+12     	; 0x1e02 <vfprintf+0x29c>
    1df6:	60 81       	ld	r22, Z
    1df8:	71 81       	ldd	r23, Z+1	; 0x01
    1dfa:	80 e0       	ldi	r24, 0x00	; 0
    1dfc:	90 e0       	ldi	r25, 0x00	; 0
    1dfe:	0e 5f       	subi	r16, 0xFE	; 254
    1e00:	1f 4f       	sbci	r17, 0xFF	; 255
    1e02:	a3 01       	movw	r20, r6
    1e04:	0e 94 e6 0f 	call	0x1fcc	; 0x1fcc <__ultoa_invert>
    1e08:	88 2e       	mov	r8, r24
    1e0a:	86 18       	sub	r8, r6
    1e0c:	fb 2d       	mov	r31, r11
    1e0e:	ff 77       	andi	r31, 0x7F	; 127
    1e10:	3f 2e       	mov	r3, r31
    1e12:	36 fe       	sbrs	r3, 6
    1e14:	0d c0       	rjmp	.+26     	; 0x1e30 <vfprintf+0x2ca>
    1e16:	23 2d       	mov	r18, r3
    1e18:	2e 7f       	andi	r18, 0xFE	; 254
    1e1a:	a2 2e       	mov	r10, r18
    1e1c:	89 14       	cp	r8, r9
    1e1e:	58 f4       	brcc	.+22     	; 0x1e36 <vfprintf+0x2d0>
    1e20:	34 fe       	sbrs	r3, 4
    1e22:	0b c0       	rjmp	.+22     	; 0x1e3a <vfprintf+0x2d4>
    1e24:	32 fc       	sbrc	r3, 2
    1e26:	09 c0       	rjmp	.+18     	; 0x1e3a <vfprintf+0x2d4>
    1e28:	83 2d       	mov	r24, r3
    1e2a:	8e 7e       	andi	r24, 0xEE	; 238
    1e2c:	a8 2e       	mov	r10, r24
    1e2e:	05 c0       	rjmp	.+10     	; 0x1e3a <vfprintf+0x2d4>
    1e30:	b8 2c       	mov	r11, r8
    1e32:	a3 2c       	mov	r10, r3
    1e34:	03 c0       	rjmp	.+6      	; 0x1e3c <vfprintf+0x2d6>
    1e36:	b8 2c       	mov	r11, r8
    1e38:	01 c0       	rjmp	.+2      	; 0x1e3c <vfprintf+0x2d6>
    1e3a:	b9 2c       	mov	r11, r9
    1e3c:	a4 fe       	sbrs	r10, 4
    1e3e:	0f c0       	rjmp	.+30     	; 0x1e5e <vfprintf+0x2f8>
    1e40:	fe 01       	movw	r30, r28
    1e42:	e8 0d       	add	r30, r8
    1e44:	f1 1d       	adc	r31, r1
    1e46:	80 81       	ld	r24, Z
    1e48:	80 33       	cpi	r24, 0x30	; 48
    1e4a:	21 f4       	brne	.+8      	; 0x1e54 <vfprintf+0x2ee>
    1e4c:	9a 2d       	mov	r25, r10
    1e4e:	99 7e       	andi	r25, 0xE9	; 233
    1e50:	a9 2e       	mov	r10, r25
    1e52:	09 c0       	rjmp	.+18     	; 0x1e66 <vfprintf+0x300>
    1e54:	a2 fe       	sbrs	r10, 2
    1e56:	06 c0       	rjmp	.+12     	; 0x1e64 <vfprintf+0x2fe>
    1e58:	b3 94       	inc	r11
    1e5a:	b3 94       	inc	r11
    1e5c:	04 c0       	rjmp	.+8      	; 0x1e66 <vfprintf+0x300>
    1e5e:	8a 2d       	mov	r24, r10
    1e60:	86 78       	andi	r24, 0x86	; 134
    1e62:	09 f0       	breq	.+2      	; 0x1e66 <vfprintf+0x300>
    1e64:	b3 94       	inc	r11
    1e66:	a3 fc       	sbrc	r10, 3
    1e68:	11 c0       	rjmp	.+34     	; 0x1e8c <vfprintf+0x326>
    1e6a:	a0 fe       	sbrs	r10, 0
    1e6c:	06 c0       	rjmp	.+12     	; 0x1e7a <vfprintf+0x314>
    1e6e:	b2 14       	cp	r11, r2
    1e70:	88 f4       	brcc	.+34     	; 0x1e94 <vfprintf+0x32e>
    1e72:	28 0c       	add	r2, r8
    1e74:	92 2c       	mov	r9, r2
    1e76:	9b 18       	sub	r9, r11
    1e78:	0e c0       	rjmp	.+28     	; 0x1e96 <vfprintf+0x330>
    1e7a:	b2 14       	cp	r11, r2
    1e7c:	60 f4       	brcc	.+24     	; 0x1e96 <vfprintf+0x330>
    1e7e:	b6 01       	movw	r22, r12
    1e80:	80 e2       	ldi	r24, 0x20	; 32
    1e82:	90 e0       	ldi	r25, 0x00	; 0
    1e84:	0e 94 aa 0f 	call	0x1f54	; 0x1f54 <fputc>
    1e88:	b3 94       	inc	r11
    1e8a:	f7 cf       	rjmp	.-18     	; 0x1e7a <vfprintf+0x314>
    1e8c:	b2 14       	cp	r11, r2
    1e8e:	18 f4       	brcc	.+6      	; 0x1e96 <vfprintf+0x330>
    1e90:	2b 18       	sub	r2, r11
    1e92:	02 c0       	rjmp	.+4      	; 0x1e98 <vfprintf+0x332>
    1e94:	98 2c       	mov	r9, r8
    1e96:	21 2c       	mov	r2, r1
    1e98:	a4 fe       	sbrs	r10, 4
    1e9a:	10 c0       	rjmp	.+32     	; 0x1ebc <vfprintf+0x356>
    1e9c:	b6 01       	movw	r22, r12
    1e9e:	80 e3       	ldi	r24, 0x30	; 48
    1ea0:	90 e0       	ldi	r25, 0x00	; 0
    1ea2:	0e 94 aa 0f 	call	0x1f54	; 0x1f54 <fputc>
    1ea6:	a2 fe       	sbrs	r10, 2
    1ea8:	17 c0       	rjmp	.+46     	; 0x1ed8 <vfprintf+0x372>
    1eaa:	a1 fc       	sbrc	r10, 1
    1eac:	03 c0       	rjmp	.+6      	; 0x1eb4 <vfprintf+0x34e>
    1eae:	88 e7       	ldi	r24, 0x78	; 120
    1eb0:	90 e0       	ldi	r25, 0x00	; 0
    1eb2:	02 c0       	rjmp	.+4      	; 0x1eb8 <vfprintf+0x352>
    1eb4:	88 e5       	ldi	r24, 0x58	; 88
    1eb6:	90 e0       	ldi	r25, 0x00	; 0
    1eb8:	b6 01       	movw	r22, r12
    1eba:	0c c0       	rjmp	.+24     	; 0x1ed4 <vfprintf+0x36e>
    1ebc:	8a 2d       	mov	r24, r10
    1ebe:	86 78       	andi	r24, 0x86	; 134
    1ec0:	59 f0       	breq	.+22     	; 0x1ed8 <vfprintf+0x372>
    1ec2:	a1 fe       	sbrs	r10, 1
    1ec4:	02 c0       	rjmp	.+4      	; 0x1eca <vfprintf+0x364>
    1ec6:	8b e2       	ldi	r24, 0x2B	; 43
    1ec8:	01 c0       	rjmp	.+2      	; 0x1ecc <vfprintf+0x366>
    1eca:	80 e2       	ldi	r24, 0x20	; 32
    1ecc:	a7 fc       	sbrc	r10, 7
    1ece:	8d e2       	ldi	r24, 0x2D	; 45
    1ed0:	b6 01       	movw	r22, r12
    1ed2:	90 e0       	ldi	r25, 0x00	; 0
    1ed4:	0e 94 aa 0f 	call	0x1f54	; 0x1f54 <fputc>
    1ed8:	89 14       	cp	r8, r9
    1eda:	38 f4       	brcc	.+14     	; 0x1eea <vfprintf+0x384>
    1edc:	b6 01       	movw	r22, r12
    1ede:	80 e3       	ldi	r24, 0x30	; 48
    1ee0:	90 e0       	ldi	r25, 0x00	; 0
    1ee2:	0e 94 aa 0f 	call	0x1f54	; 0x1f54 <fputc>
    1ee6:	9a 94       	dec	r9
    1ee8:	f7 cf       	rjmp	.-18     	; 0x1ed8 <vfprintf+0x372>
    1eea:	8a 94       	dec	r8
    1eec:	f3 01       	movw	r30, r6
    1eee:	e8 0d       	add	r30, r8
    1ef0:	f1 1d       	adc	r31, r1
    1ef2:	80 81       	ld	r24, Z
    1ef4:	b6 01       	movw	r22, r12
    1ef6:	90 e0       	ldi	r25, 0x00	; 0
    1ef8:	0e 94 aa 0f 	call	0x1f54	; 0x1f54 <fputc>
    1efc:	81 10       	cpse	r8, r1
    1efe:	f5 cf       	rjmp	.-22     	; 0x1eea <vfprintf+0x384>
    1f00:	22 20       	and	r2, r2
    1f02:	09 f4       	brne	.+2      	; 0x1f06 <vfprintf+0x3a0>
    1f04:	42 ce       	rjmp	.-892    	; 0x1b8a <vfprintf+0x24>
    1f06:	b6 01       	movw	r22, r12
    1f08:	80 e2       	ldi	r24, 0x20	; 32
    1f0a:	90 e0       	ldi	r25, 0x00	; 0
    1f0c:	0e 94 aa 0f 	call	0x1f54	; 0x1f54 <fputc>
    1f10:	2a 94       	dec	r2
    1f12:	f6 cf       	rjmp	.-20     	; 0x1f00 <vfprintf+0x39a>
    1f14:	f6 01       	movw	r30, r12
    1f16:	86 81       	ldd	r24, Z+6	; 0x06
    1f18:	97 81       	ldd	r25, Z+7	; 0x07
    1f1a:	02 c0       	rjmp	.+4      	; 0x1f20 <vfprintf+0x3ba>
    1f1c:	8f ef       	ldi	r24, 0xFF	; 255
    1f1e:	9f ef       	ldi	r25, 0xFF	; 255
    1f20:	2b 96       	adiw	r28, 0x0b	; 11
    1f22:	e2 e1       	ldi	r30, 0x12	; 18
    1f24:	0c 94 60 10 	jmp	0x20c0	; 0x20c0 <__epilogue_restores__>

00001f28 <strnlen_P>:
    1f28:	fc 01       	movw	r30, r24
    1f2a:	05 90       	lpm	r0, Z+
    1f2c:	61 50       	subi	r22, 0x01	; 1
    1f2e:	70 40       	sbci	r23, 0x00	; 0
    1f30:	01 10       	cpse	r0, r1
    1f32:	d8 f7       	brcc	.-10     	; 0x1f2a <strnlen_P+0x2>
    1f34:	80 95       	com	r24
    1f36:	90 95       	com	r25
    1f38:	8e 0f       	add	r24, r30
    1f3a:	9f 1f       	adc	r25, r31
    1f3c:	08 95       	ret

00001f3e <strnlen>:
    1f3e:	fc 01       	movw	r30, r24
    1f40:	61 50       	subi	r22, 0x01	; 1
    1f42:	70 40       	sbci	r23, 0x00	; 0
    1f44:	01 90       	ld	r0, Z+
    1f46:	01 10       	cpse	r0, r1
    1f48:	d8 f7       	brcc	.-10     	; 0x1f40 <strnlen+0x2>
    1f4a:	80 95       	com	r24
    1f4c:	90 95       	com	r25
    1f4e:	8e 0f       	add	r24, r30
    1f50:	9f 1f       	adc	r25, r31
    1f52:	08 95       	ret

00001f54 <fputc>:
    1f54:	0f 93       	push	r16
    1f56:	1f 93       	push	r17
    1f58:	cf 93       	push	r28
    1f5a:	df 93       	push	r29
    1f5c:	fb 01       	movw	r30, r22
    1f5e:	23 81       	ldd	r18, Z+3	; 0x03
    1f60:	21 fd       	sbrc	r18, 1
    1f62:	03 c0       	rjmp	.+6      	; 0x1f6a <fputc+0x16>
    1f64:	8f ef       	ldi	r24, 0xFF	; 255
    1f66:	9f ef       	ldi	r25, 0xFF	; 255
    1f68:	2c c0       	rjmp	.+88     	; 0x1fc2 <fputc+0x6e>
    1f6a:	22 ff       	sbrs	r18, 2
    1f6c:	16 c0       	rjmp	.+44     	; 0x1f9a <fputc+0x46>
    1f6e:	46 81       	ldd	r20, Z+6	; 0x06
    1f70:	57 81       	ldd	r21, Z+7	; 0x07
    1f72:	24 81       	ldd	r18, Z+4	; 0x04
    1f74:	35 81       	ldd	r19, Z+5	; 0x05
    1f76:	42 17       	cp	r20, r18
    1f78:	53 07       	cpc	r21, r19
    1f7a:	44 f4       	brge	.+16     	; 0x1f8c <fputc+0x38>
    1f7c:	a0 81       	ld	r26, Z
    1f7e:	b1 81       	ldd	r27, Z+1	; 0x01
    1f80:	9d 01       	movw	r18, r26
    1f82:	2f 5f       	subi	r18, 0xFF	; 255
    1f84:	3f 4f       	sbci	r19, 0xFF	; 255
    1f86:	31 83       	std	Z+1, r19	; 0x01
    1f88:	20 83       	st	Z, r18
    1f8a:	8c 93       	st	X, r24
    1f8c:	26 81       	ldd	r18, Z+6	; 0x06
    1f8e:	37 81       	ldd	r19, Z+7	; 0x07
    1f90:	2f 5f       	subi	r18, 0xFF	; 255
    1f92:	3f 4f       	sbci	r19, 0xFF	; 255
    1f94:	37 83       	std	Z+7, r19	; 0x07
    1f96:	26 83       	std	Z+6, r18	; 0x06
    1f98:	14 c0       	rjmp	.+40     	; 0x1fc2 <fputc+0x6e>
    1f9a:	8b 01       	movw	r16, r22
    1f9c:	ec 01       	movw	r28, r24
    1f9e:	fb 01       	movw	r30, r22
    1fa0:	00 84       	ldd	r0, Z+8	; 0x08
    1fa2:	f1 85       	ldd	r31, Z+9	; 0x09
    1fa4:	e0 2d       	mov	r30, r0
    1fa6:	09 95       	icall
    1fa8:	89 2b       	or	r24, r25
    1faa:	e1 f6       	brne	.-72     	; 0x1f64 <fputc+0x10>
    1fac:	d8 01       	movw	r26, r16
    1fae:	16 96       	adiw	r26, 0x06	; 6
    1fb0:	8d 91       	ld	r24, X+
    1fb2:	9c 91       	ld	r25, X
    1fb4:	17 97       	sbiw	r26, 0x07	; 7
    1fb6:	01 96       	adiw	r24, 0x01	; 1
    1fb8:	17 96       	adiw	r26, 0x07	; 7
    1fba:	9c 93       	st	X, r25
    1fbc:	8e 93       	st	-X, r24
    1fbe:	16 97       	sbiw	r26, 0x06	; 6
    1fc0:	ce 01       	movw	r24, r28
    1fc2:	df 91       	pop	r29
    1fc4:	cf 91       	pop	r28
    1fc6:	1f 91       	pop	r17
    1fc8:	0f 91       	pop	r16
    1fca:	08 95       	ret

00001fcc <__ultoa_invert>:
    1fcc:	fa 01       	movw	r30, r20
    1fce:	aa 27       	eor	r26, r26
    1fd0:	28 30       	cpi	r18, 0x08	; 8
    1fd2:	51 f1       	breq	.+84     	; 0x2028 <__ultoa_invert+0x5c>
    1fd4:	20 31       	cpi	r18, 0x10	; 16
    1fd6:	81 f1       	breq	.+96     	; 0x2038 <__ultoa_invert+0x6c>
    1fd8:	e8 94       	clt
    1fda:	6f 93       	push	r22
    1fdc:	6e 7f       	andi	r22, 0xFE	; 254
    1fde:	6e 5f       	subi	r22, 0xFE	; 254
    1fe0:	7f 4f       	sbci	r23, 0xFF	; 255
    1fe2:	8f 4f       	sbci	r24, 0xFF	; 255
    1fe4:	9f 4f       	sbci	r25, 0xFF	; 255
    1fe6:	af 4f       	sbci	r26, 0xFF	; 255
    1fe8:	b1 e0       	ldi	r27, 0x01	; 1
    1fea:	3e d0       	rcall	.+124    	; 0x2068 <__ultoa_invert+0x9c>
    1fec:	b4 e0       	ldi	r27, 0x04	; 4
    1fee:	3c d0       	rcall	.+120    	; 0x2068 <__ultoa_invert+0x9c>
    1ff0:	67 0f       	add	r22, r23
    1ff2:	78 1f       	adc	r23, r24
    1ff4:	89 1f       	adc	r24, r25
    1ff6:	9a 1f       	adc	r25, r26
    1ff8:	a1 1d       	adc	r26, r1
    1ffa:	68 0f       	add	r22, r24
    1ffc:	79 1f       	adc	r23, r25
    1ffe:	8a 1f       	adc	r24, r26
    2000:	91 1d       	adc	r25, r1
    2002:	a1 1d       	adc	r26, r1
    2004:	6a 0f       	add	r22, r26
    2006:	71 1d       	adc	r23, r1
    2008:	81 1d       	adc	r24, r1
    200a:	91 1d       	adc	r25, r1
    200c:	a1 1d       	adc	r26, r1
    200e:	20 d0       	rcall	.+64     	; 0x2050 <__ultoa_invert+0x84>
    2010:	09 f4       	brne	.+2      	; 0x2014 <__ultoa_invert+0x48>
    2012:	68 94       	set
    2014:	3f 91       	pop	r19
    2016:	2a e0       	ldi	r18, 0x0A	; 10
    2018:	26 9f       	mul	r18, r22
    201a:	11 24       	eor	r1, r1
    201c:	30 19       	sub	r19, r0
    201e:	30 5d       	subi	r19, 0xD0	; 208
    2020:	31 93       	st	Z+, r19
    2022:	de f6       	brtc	.-74     	; 0x1fda <__ultoa_invert+0xe>
    2024:	cf 01       	movw	r24, r30
    2026:	08 95       	ret
    2028:	46 2f       	mov	r20, r22
    202a:	47 70       	andi	r20, 0x07	; 7
    202c:	40 5d       	subi	r20, 0xD0	; 208
    202e:	41 93       	st	Z+, r20
    2030:	b3 e0       	ldi	r27, 0x03	; 3
    2032:	0f d0       	rcall	.+30     	; 0x2052 <__ultoa_invert+0x86>
    2034:	c9 f7       	brne	.-14     	; 0x2028 <__ultoa_invert+0x5c>
    2036:	f6 cf       	rjmp	.-20     	; 0x2024 <__ultoa_invert+0x58>
    2038:	46 2f       	mov	r20, r22
    203a:	4f 70       	andi	r20, 0x0F	; 15
    203c:	40 5d       	subi	r20, 0xD0	; 208
    203e:	4a 33       	cpi	r20, 0x3A	; 58
    2040:	18 f0       	brcs	.+6      	; 0x2048 <__ultoa_invert+0x7c>
    2042:	49 5d       	subi	r20, 0xD9	; 217
    2044:	31 fd       	sbrc	r19, 1
    2046:	40 52       	subi	r20, 0x20	; 32
    2048:	41 93       	st	Z+, r20
    204a:	02 d0       	rcall	.+4      	; 0x2050 <__ultoa_invert+0x84>
    204c:	a9 f7       	brne	.-22     	; 0x2038 <__ultoa_invert+0x6c>
    204e:	ea cf       	rjmp	.-44     	; 0x2024 <__ultoa_invert+0x58>
    2050:	b4 e0       	ldi	r27, 0x04	; 4
    2052:	a6 95       	lsr	r26
    2054:	97 95       	ror	r25
    2056:	87 95       	ror	r24
    2058:	77 95       	ror	r23
    205a:	67 95       	ror	r22
    205c:	ba 95       	dec	r27
    205e:	c9 f7       	brne	.-14     	; 0x2052 <__ultoa_invert+0x86>
    2060:	00 97       	sbiw	r24, 0x00	; 0
    2062:	61 05       	cpc	r22, r1
    2064:	71 05       	cpc	r23, r1
    2066:	08 95       	ret
    2068:	9b 01       	movw	r18, r22
    206a:	ac 01       	movw	r20, r24
    206c:	0a 2e       	mov	r0, r26
    206e:	06 94       	lsr	r0
    2070:	57 95       	ror	r21
    2072:	47 95       	ror	r20
    2074:	37 95       	ror	r19
    2076:	27 95       	ror	r18
    2078:	ba 95       	dec	r27
    207a:	c9 f7       	brne	.-14     	; 0x206e <__ultoa_invert+0xa2>
    207c:	62 0f       	add	r22, r18
    207e:	73 1f       	adc	r23, r19
    2080:	84 1f       	adc	r24, r20
    2082:	95 1f       	adc	r25, r21
    2084:	a0 1d       	adc	r26, r0
    2086:	08 95       	ret

00002088 <__prologue_saves__>:
    2088:	2f 92       	push	r2
    208a:	3f 92       	push	r3
    208c:	4f 92       	push	r4
    208e:	5f 92       	push	r5
    2090:	6f 92       	push	r6
    2092:	7f 92       	push	r7
    2094:	8f 92       	push	r8
    2096:	9f 92       	push	r9
    2098:	af 92       	push	r10
    209a:	bf 92       	push	r11
    209c:	cf 92       	push	r12
    209e:	df 92       	push	r13
    20a0:	ef 92       	push	r14
    20a2:	ff 92       	push	r15
    20a4:	0f 93       	push	r16
    20a6:	1f 93       	push	r17
    20a8:	cf 93       	push	r28
    20aa:	df 93       	push	r29
    20ac:	cd b7       	in	r28, 0x3d	; 61
    20ae:	de b7       	in	r29, 0x3e	; 62
    20b0:	ca 1b       	sub	r28, r26
    20b2:	db 0b       	sbc	r29, r27
    20b4:	0f b6       	in	r0, 0x3f	; 63
    20b6:	f8 94       	cli
    20b8:	de bf       	out	0x3e, r29	; 62
    20ba:	0f be       	out	0x3f, r0	; 63
    20bc:	cd bf       	out	0x3d, r28	; 61
    20be:	09 94       	ijmp

000020c0 <__epilogue_restores__>:
    20c0:	2a 88       	ldd	r2, Y+18	; 0x12
    20c2:	39 88       	ldd	r3, Y+17	; 0x11
    20c4:	48 88       	ldd	r4, Y+16	; 0x10
    20c6:	5f 84       	ldd	r5, Y+15	; 0x0f
    20c8:	6e 84       	ldd	r6, Y+14	; 0x0e
    20ca:	7d 84       	ldd	r7, Y+13	; 0x0d
    20cc:	8c 84       	ldd	r8, Y+12	; 0x0c
    20ce:	9b 84       	ldd	r9, Y+11	; 0x0b
    20d0:	aa 84       	ldd	r10, Y+10	; 0x0a
    20d2:	b9 84       	ldd	r11, Y+9	; 0x09
    20d4:	c8 84       	ldd	r12, Y+8	; 0x08
    20d6:	df 80       	ldd	r13, Y+7	; 0x07
    20d8:	ee 80       	ldd	r14, Y+6	; 0x06
    20da:	fd 80       	ldd	r15, Y+5	; 0x05
    20dc:	0c 81       	ldd	r16, Y+4	; 0x04
    20de:	1b 81       	ldd	r17, Y+3	; 0x03
    20e0:	aa 81       	ldd	r26, Y+2	; 0x02
    20e2:	b9 81       	ldd	r27, Y+1	; 0x01
    20e4:	ce 0f       	add	r28, r30
    20e6:	d1 1d       	adc	r29, r1
    20e8:	0f b6       	in	r0, 0x3f	; 63
    20ea:	f8 94       	cli
    20ec:	de bf       	out	0x3e, r29	; 62
    20ee:	0f be       	out	0x3f, r0	; 63
    20f0:	cd bf       	out	0x3d, r28	; 61
    20f2:	ed 01       	movw	r28, r26
    20f4:	08 95       	ret

000020f6 <_exit>:
    20f6:	f8 94       	cli

000020f8 <__stop_program>:
    20f8:	ff cf       	rjmp	.-2      	; 0x20f8 <__stop_program>
